(dp1
S'username'
p2
S'CHAR(128)'
p3
sS'first_name'
p4
S'CHAR(128)'
p5
sS'last_name'
p6
S'CHAR(128)'
p7
sS'admin_priv'
p8
S'CHAR(1)'
p9
sS'pic'
p10
S'CHAR(512)'
p11
sS'registration_id'
p12
S'CHAR(512)'
p13
sS'email'
p14
S'CHAR(512)'
p15
sS'reset_password_key'
p16
S'CHAR(512)'
p17
sS'password'
p18
S'CHAR(512)'
p19
sS'registration_key'
p20
S'CHAR(512)'
p21
sS'id'
p22
S'INTEGER PRIMARY KEY AUTOINCREMENT'
p23
s.