(dp1
S'sim'
p2
S'DOUBLE'
p3
sS'id'
p4
S'INTEGER PRIMARY KEY AUTOINCREMENT'
p5
sS'song2'
p6
S'INTEGER REFERENCES song(id) ON DELETE CASCADE'
p7
sS'song1'
p8
S'INTEGER REFERENCES song(id) ON DELETE CASCADE'
p9
s.