(dp1
S'doup'
p2
S'DATE'
p3
sS'album'
p4
S'CHAR(512)'
p5
sS'user_id'
p6
S'INTEGER REFERENCES auth_user(id) ON DELETE CASCADE'
p7
sS'name'
p8
S'CHAR(512)'
p9
sS'lyrics'
p10
S'TEXT'
p11
sS'rating'
p12
S'DOUBLE'
p13
sS'nod'
p14
S'INTEGER'
p15
sS'pic'
p16
S'CHAR(512)'
p17
sS'genere'
p18
S'CHAR(512)'
p19
sS'length'
p20
S'TIME'
p21
sS'file'
p22
S'CHAR(512)'
p23
sS'year'
p24
S'INTEGER'
p25
sS'artist'
p26
S'CHAR(512)'
p27
sS'btr'
p28
S'INTEGER'
p29
sS'id'
p30
S'INTEGER PRIMARY KEY AUTOINCREMENT'
p31
s.