(dp1
S'output'
p2
S''
sS'layer'
p3
S'/home/aakarshit/Desktop/python/web2py/applications/Music_Library/views/default/mymusic.html'
p4
sS'code'
p5
S'response.write(\'<!DOCTYPE html PUBLIC "-//W3C//DTD XHTML 1.0 Transitional//EN" "http://www.w3.org/TR/xhtml1/DTD/xhtml1-transitional.dtd">\\n<html xmlns="http://www.w3.org/1999/xhtml" xml:lang="\', escape=False)\nresponse.write(T.accepted_language or \'en\')\nresponse.write(\'">\\n<head>\\n<meta http-equiv="Content-Type" content="text/html; charset=iso-8859-1" />\\n<title>\', escape=False)\nresponse.write(response.title or request.application)\nresponse.write(\'</title>\\n<link rel="shortcut icon"\\n      href="\', escape=False)\nresponse.write(URL(request.application,\'static\',\'favicon.ico\'))\nresponse.write(\'" \\n      type="image/vnd.microsoft.icon"/>\\n    \', escape=False)\n#------  require CSS and JS files for this page (read info in base.css) ------\nresponse.write(\'\\n    \', escape=False)\nresponse.files.append(URL(request.application,\'static\',\'music2.css\'))\nresponse.write(\'\\n    \\n    \', escape=False)\nresponse.files.append(URL(request.application,\'static\',\'music_both.css\'))\nresponse.write(\'\\n    \', escape=False)\nresponse.files.append(URL(request.application,\'static\',\'superfish.js\'))\nresponse.write(\'\\n    \', escape=False)\n#------ include web2py specific js code (jquery, calendar, form stuff) ------\nresponse.write(\'\\n    \', escape=False)\nresponse.files.insert(0,URL(r=request,c=\'static\',f=\'jquery.js\'))\nresponse.files.insert(1,URL(r=request,c=\'static\',f=\'calendar.css\'))\nresponse.files.insert(2,URL(r=request,c=\'static\',f=\'calendar.js\'))\nfor _item in response.meta or []:\n    response.write(\'\\n     <meta name="\', escape=False)\n    response.write(_item)\n    response.write(\'" content="\', escape=False)\n    response.write(response.meta[_item])\n    response.write(\'" />\', escape=False)\n    pass\nfor _k,_file in enumerate(response.files or []):\n    if _file in response.files[:_k]:\n        continue\n    elif _file.lower().endswith(\'.css\'):\n        response.write(\'\\n     <link href="\', escape=False)\n        response.write(_file)\n        response.write(\'" rel="stylesheet" type="text/css" />\', escape=False)\n    elif _file.lower().endswith(\'.js\'):\n        response.write(\'\\n     <script src="\', escape=False)\n        response.write(_file)\n        response.write(\'" type="text/javascript"></script>\', escape=False)\n        pass\n    pass\nresponse.write(\'\\n<script type="text/javascript"><!--\\nfunction popup(url) {\\n  newwindow=window.open(url,\\\'name\\\',\\\'height=400,width=600\\\');\\n  if (window.focus) newwindow.focus();\\n  return false;\\n}\\nfunction collapse(id) { jQuery(\\\'#\\\'+id).slideToggle(); }\\nfunction fade(id,value) { if(value>0) jQuery(\\\'#\\\'+id).hide().fadeIn(\\\'slow\\\'); else jQuery(\\\'#\\\'+id).show().fadeOut(\\\'slow\\\'); }\\nfunction ajax(u,s,t) {\\n    query = \\\'\\\';\\n    if (typeof s == "string") {\\n        d = jQuery(s).serialize();\\n        if(d){ query = d; }\\n    } else {\\n        pcs = [];\\n        for(i=0; i<s.length; i++) {\\n            q = jQuery("#"+s[i]).serialize();\\n            if(q){pcs.push(q);}\\n        }\\n        if (pcs.length>0){query = pcs.join("&");}\\n    }\\n    jQuery.ajax({type: "POST", url: u, data: query, success: function(msg) { if(t) { if(t==\\\':eval\\\') eval(msg); else jQuery("#" + t).html(msg); } } }); \\n}\\nString.prototype.reverse = function () { return this.split(\\\'\\\').reverse().join(\\\'\\\');};\\nfunction web2py_ajax_init() {\\n  jQuery(\\\'.hidden\\\').hide();\\n  jQuery(\\\'.error\\\').hide().slideDown(\\\'slow\\\');\\n  jQuery(\\\'.flash\\\').click(function() { jQuery(this).fadeOut(\\\'slow\\\'); return false; });\\n  jQuery(\\\'input.integer\\\').keyup(function(){this.value=this.value.reverse().replace(/[^0-9\\\\-]|\\\\-(?=.)/g,\\\'\\\').reverse();});\\n  jQuery(\\\'input.double\\\').keyup(function(){this.value=this.value.reverse().replace(/[^0-9\\\\-\\\\.]|[\\\\-](?=.)|[\\\\.](?=[0-9]*[\\\\.])/g,\\\'\\\').reverse();});\\n  jQuery("input[type=\\\'checkbox\\\'].delete").each(function(){jQuery(this).click(function() { if(this.checked) if(!confirm("\', escape=False)\nresponse.write(T(\'Sure you want to delete this object?\'))\nresponse.write(\'")) this.checked=false; });});\\n  try {jQuery("input.date").focus( function() {Calendar.setup({\\n     inputField:this.id, ifFormat:"\', escape=False)\nresponse.write(T(\'%Y-%m-%d\'))\nresponse.write(\'", showsTime:false\\n  }); }); } catch(e) {};\\n  try { jQuery("input.datetime").focus( function() {Calendar.setup({\\n     inputField:this.id, ifFormat:"\', escape=False)\nresponse.write(T(\'%Y-%m-%d %H:%M:%S\'))\nresponse.write(\'", showsTime: true,timeFormat: "24"\\n  }); }); } catch(e) {};\\n  try { jQuery("input.time").clockpick({\\n      starthour:0, endhour:23, showminutes:true, military:true\\n  }); } catch(e) {};\\n};\\njQuery(document).ready(function(){\\n   jQuery(\\\'.flash\\\').hide();\\n   if(jQuery(\\\'.flash\\\').html()!=\\\'\\\') jQuery(\\\'.flash\\\').slideDown(\\\'slow\\\');\\n   web2py_ajax_init();});\\n\\nfunction web2py_trap_form(action,target) {\\n   jQuery(\\\'#\\\'+target+\\\' form\\\').each(function(i){\\n      var form=jQuery(this);\\n      if(!form.hasClass(\\\'no_trap\\\'))\\n        form.submit(function(obj){\\n         jQuery(\\\'.flash\\\').hide().html(\\\'\\\');\\n         web2py_ajax_page(\\\'post\\\',action,form.serialize(),target);\\n         return false;\\n      });\\n   });\\n}\\n\\nfunction web2py_ajax_page(method,action,data,target) {\\n  jQuery.ajax({\\\'type\\\':method,\\\'url\\\':action,\\\'data\\\':data,\\n    \\\'beforeSend\\\':function(xhr){\\n      xhr.setRequestHeader(\\\'web2py-component-location\\\',document.location);\\n      xhr.setRequestHeader(\\\'web2py-component-element\\\',target);},\\n    \\\'complete\\\':function(xhr,text){\\n      command=xhr.getResponseHeader(\\\'web2py-component-command\\\');\\n      if(command) eval(command);\\n      flash=xhr.getResponseHeader(\\\'web2py-component-flash\\\');\\n      if(flash) jQuery(\\\'.flash\\\').html(flash).slideDown();\\n      },\\n    \\\'success\\\': function(text) {\\n      jQuery(\\\'#\\\'+target).html(text);\\n      web2py_trap_form(action,target);\\n      web2py_ajax_init();\\n      }\\n    });\\n}\\nfunction web2py_component(action,target) {\\n    jQuery(document).ready(function(){ web2py_ajax_page(\\\'get\\\',action,null,target); });\\n}\\n//--></script>\\n\', escape=False)\nresponse.write(\'\\n</head>\\n<body>\\n\\n<div class="flash">\', escape=False)\nresponse.write(response.flash or \'\')\nresponse.write(\'</div>\\n\\n\\n<div id="main">\\n  <div id="header">\\n   <div id="menu"> <a href="\', escape=False)\nresponse.write(URL(r=request,f=\'user\',args=\'logout\',c=\'default\'))\nresponse.write(\'">LOGOUT </a>\\n     <a href="#">ABOUT US </a>\\n      <a href="\', escape=False)\nresponse.write(URL(r=request,f=\'playlist\',c=\'default\'))\nresponse.write(\'">PLAYLIST </a>\\n       <a href="\', escape=False)\nresponse.write(URL(r=request,f=\'mymusic\',c=\'default\'))\nresponse.write(\'">MY SONGS</a>\\n       <a href="\', escape=False)\nresponse.write(URL(r=request,f=newlink,c=\'default\'))\nresponse.write(\'">UPLOAD </a>\\n        <a href="\', escape=False)\nresponse.write(URL(r=request,f=\'home\',c=\'default\'))\nresponse.write(\'">HOME</a> </div>\\n    <div id="header-Bottom">\\n      <div id="logoBlock">\\n        <h1>My Music</h1>\\n        <p>EVERYMUSIC YOU WANT TO LISTEN </p>\\n      </div>\\n      <div id="navBlock">\\n        \\n        <h2>\\n        <img src="\', escape=False)\nresponse.write(URL(r=request,f=\'download\',args=session.auth.user.pic))\nresponse.write(\'"  width="75px" height="75"/>\\n            \', escape=False)\nresponse.write((session.auth.user.first_name).capitalize())\nresponse.write(\'\\n         </h2>\\n         </div>\\n\\n    </div>\\n  </div>\\n  <div id="mainCont">\\n    <div id="leftCol">\\n      <div id="welcomeBox">\\n\\n        \\n        \\n      </div>\\n      <div id="playListTop">\\n        <h3>MY SONGS</h3>\\n\\n      </div>\\n      \', escape=False)\nimport time\nresponse.write(\'\\n       <div id="playListBody">\\n        <div class="head">\\n          <p class="left">PLAY</p>\\n          <p class="centr">TRACK</p>\\n          <p class="right">ARTIST</p>\\n          <p class="right">ALBUM</p>\\n          <p class="rightl">TIME</p>\\n        </div>\\n       \', escape=False)\nflag=1\nresponse.write(\'\\n       \', escape=False)\nfor i in byme:\n    response.write(\'\\n        \\n          \', escape=False)\n    if(flag==1):\n        response.write(\'\\n            \', escape=False)\n        p="playListDark"\n        response.write(\'\\n          \', escape=False)\n    else:\n        response.write(\'\\n            \', escape=False)\n        p="playListLight"\n        response.write(\'\\n          \', escape=False)\n        pass\n    response.write(\'\\n             \\n       <div class="\', escape=False)\n    response.write(p)\n    response.write(\'">\\n          <a href="\', escape=False)\n    response.write(URL(r=request,f=\'play\',args=i.id))\n    response.write(\'">\\n          <p class="play"></p></a>   <!-- give the link to play the file -->\\n          <p class="track">\', escape=False)\n    response.write(i.name[:16])\n    response.write(\'</p>\\n          <p class="artist">\', escape=False)\n    response.write(i.artist[:16])\n    response.write(\'</p>\\n          <p class="artist">\', escape=False)\n    response.write(i.album[:15])\n    response.write(\'</p>\\n          <p class="length">\', escape=False)\n    response.write(time.strftime(\'%M:%S\', time.gmtime(i.length)))\n    response.write(\'</p>\\n          </div>\\n      \', escape=False)\n    flag*=-1\n    response.write(\'\\n      \', escape=False)\n    pass\nresponse.write(\'\\n     \\n   \\n\\n        <div class="playListLight">\\n          \\n          <p class="bot">&nbsp;</p>\\n\\n        </div>\\n      </div>\\n      <div id="playListBot">\\n      \', escape=False)\nif pre==1:\n    response.write(\'\\n               \\t<h1> \', escape=False)\n    response.write(A(\'PREVIOUS\',_href=URL(r=request,f=\'mymusic\',c=\'default\',vars= dict(pageno=pageno-1))))\n    response.write(\' </h1>\\n       \', escape=False)\n    pass\nresponse.write(\'\\n       \', escape=False)\nif next==1:\n    response.write(\'\\n               \\t<h2>\', escape=False)\n    response.write(A(\'NEXT\',_href=URL(r=request,f=\'mymusic\',c=\'default\',vars= dict(pageno=pageno + 1))))\n    response.write(\'</h2>\\n      \', escape=False)\n    pass\nresponse.write(\'\\n      </div>\\n    </div>\\n    <div id="centrCol">\\n      <div class="banr"><img src="\', escape=False)\nresponse.write(URL(request.application,\'static\',\'music.jpg\'))\nresponse.write(\'" width="275" height="182" border="0" alt="banr"/></div>\\n      <div id="albmBlock">\\n        \', escape=False)\nfor i in recent:\n    response.write(\'\\n        <div id="albmBox">\\n          <div class="topCont">\\n           <h1><a class="left" href="\', escape=False)\n    response.write(URL(r=request,f=\'play\',args=i.id))\n    response.write(\'"><img src="\', escape=False)\n    response.write(URL(request.application,\'static\',i.pic))\n    response.write(\'" width="62" height="54" border="0" alt=""/></a></h1>\\n            <p class="headings">\', escape=False)\n    response.write(i.name[:18])\n    response.write(\' <br /><span>\', escape=False)\n    response.write(i.album[:18])\n    response.write(\'</span><br /><span>\', escape=False)\n    response.write(i.artist[:18])\n    response.write(\'</span></p></div>\\n          <div class="botCont"> <a class="left" href="\', escape=False)\n    response.write(URL(r=request,f=\'play\',args=i.id))\n    response.write(\'">play</a> </div>\\n        </div>\\n        \', escape=False)\n    pass\nresponse.write(\'\\n      </div>\\n    </div>\\n    <div id="rightCol">\\n      <div id="videoBlock">\\n        <div id="videoBlockTop">\\n          <h3>TOP DOWNLOADS</h3>\\n          <p>The latest music, albums, concerts and more<br />\\n          play your favourites</p>\\n\\n        </div>\\n         <div id="videoBlockBody">\\n      \', escape=False)\nfor i in down:\n    response.write(\'\\n          <div class="vidBox">\\n            <div class="leftBox">\\n            <a class="left" href="\', escape=False)\n    response.write(URL(r=request,f=\'play\',args=i.id))\n    response.write(\'">\\n              <p class="bold"><b>\', escape=False)\n    response.write(i.name[:30])\n    response.write(\'</b></p></a>\\n              <p class="light">\', escape=False)\n    response.write(i.album[:20])\n    response.write(\'</p>\\n              <p class="dark">\', escape=False)\n    response.write(i.artist[:20])\n    response.write(\'</p>\\n            </div>\\n            <p class="rightBox"><a class="left" href="\', escape=False)\n    response.write(URL(r=request,f=\'play\',args=i.id))\n    response.write(\'"><img src="\', escape=False)\n    response.write(URL(request.application,\'static\',i.pic))\n    response.write(\'"  width="81" height="38" border="0" alt=""/></a></p> <!-- modify-->\\n          </div>\\n        \\n     \', escape=False)\n    pass\nresponse.write(\'\\n              \\n        </div>\\n      </div>\\n      <div id="videoBlockBot"></div>\\n    </div>\\n  </div>\\n  <div id="footer">\\n<br /><br /><br /><br />\\n   <div class="rights">Copyright \\xc2\\xa9 2010 <a href="#">www.mymusic.com.</a> All Rights Reserved.</div>\\n\\n      <div class="rights">Designed by:Vibhor Goel  and  Sourav Dutta</div>\\n  </div>\\n</div>\\n\\n</body>\\n</html>\\n\', escape=False)'
p6
sS'snapshot'
p7
(dp8
S'exception'
p9
(dp10
S'__getslice__'
p11
S"<method-wrapper '__getslice__' of exceptions.SyntaxError object>"
p12
sS'text'
p13
S'None'
p14
sS'__str__'
p15
S"<method-wrapper '__str__' of exceptions.SyntaxError object>"
p16
sS'__reduce__'
p17
S'<built-in method __reduce__ of exceptions.SyntaxError object>'
p18
sS'__dict__'
p19
S'{}'
p20
sS'__sizeof__'
p21
S'<built-in method __sizeof__ of exceptions.SyntaxError object>'
p22
sS'__init__'
p23
S"<method-wrapper '__init__' of exceptions.SyntaxError object>"
p24
sS'__setattr__'
p25
S"<method-wrapper '__setattr__' of exceptions.SyntaxError object>"
p26
sS'__reduce_ex__'
p27
S'<built-in method __reduce_ex__ of exceptions.SyntaxError object>'
p28
sS'__new__'
p29
S'<built-in method __new__ of type object>'
p30
sS'__format__'
p31
S'<built-in method __format__ of exceptions.SyntaxError object>'
p32
sS'__class__'
p33
S"<type 'exceptions.SyntaxError'>"
p34
sS'filename'
p35
S'None'
p36
sS'lineno'
p37
S'None'
p38
sS'msg'
p39
S"'not enough information to build the url'"
p40
sS'__doc__'
p41
S"'Invalid syntax.'"
p42
sS'__getitem__'
p43
S"<method-wrapper '__getitem__' of exceptions.SyntaxError object>"
p44
sS'__setstate__'
p45
S'<built-in method __setstate__ of exceptions.SyntaxError object>'
p46
sS'__getattribute__'
p47
S"<method-wrapper '__getattribute__' of exceptions.SyntaxError object>"
p48
sS'print_file_and_line'
p49
S'None'
p50
sS'args'
p51
S"('not enough information to build the url',)"
p52
sS'__subclasshook__'
p53
S'<built-in method __subclasshook__ of type object>'
p54
sS'offset'
p55
S'None'
p56
sS'__unicode__'
p57
S'<built-in method __unicode__ of exceptions.SyntaxError object>'
p58
sS'__delattr__'
p59
S"<method-wrapper '__delattr__' of exceptions.SyntaxError object>"
p60
sS'__repr__'
p61
S"<method-wrapper '__repr__' of exceptions.SyntaxError object>"
p62
sS'__hash__'
p63
S"<method-wrapper '__hash__' of exceptions.SyntaxError object>"
p64
ssS'evalue'
p65
S'not enough information to build the url'
p66
sS'request'
p67
(dp68
S'function'
p69
S"'mymusic'"
p70
sS'body'
p71
S'<cStringIO.StringO object>'
p72
sS'wsgi'
p73
S"<Storage {'start_response': <function <lambda> a... 'PATH_INFO': '/Music_Library/default/mymusic'}}>"
p74
sS'extension'
p75
S"'html'"
p76
sS'vars'
p77
S'<Storage {}>'
p78
sS'cid'
p79
S'None'
p80
sS'url'
p81
S'<gluon.html.XML object>'
p82
sS'raw_extension'
p83
S'None'
p84
sg51
S'[]'
p85
sS'controller'
p86
S"'default'"
p87
sS'cookies'
p88
S"<SimpleCookie: session_id_Music_Library='127.0.0.1-f6073a7a-5d4f-4849-b8c9-66821c401173'>"
p89
sS'application'
p90
S"'Music_Library'"
p91
sS'ajax'
p92
S'False'
p93
sS'client'
p94
S"'127.0.0.1'"
p95
sS'env'
p96
S"<Storage {'wsgi_multithread': True, 'http_accept..., 'path_info': '/Music_Library/default/mymusic'}>"
p97
sS'raw_args'
p98
S'None'
p99
sS'get_vars'
p100
S'<Storage {}>'
p101
sS'folder'
p102
S"'/home/aakarshit/Desktop/python/web2py/applications/Music_Library/'"
p103
sS'now'
p104
S'datetime.datetime(2011, 2, 10, 11, 30, 29, 395071)'
p105
sS'post_vars'
p106
S'<Storage {}>'
p107
ssS'frames'
p108
(lp109
(dp110
S'file'
p111
S'/home/aakarshit/Desktop/python/web2py/gluon/restricted.py'
p112
sS'dump'
p113
(dp114
S'environment'
p115
S"{'A': <class 'gluon.html.A'>, 'Auth': <class 'gluon.tools.Auth'>, 'B': <class 'gluon.html.B'>, 'BEAUTIFY': <class 'gluon.html.BEAUTIFY'>, 'BODY': <class 'gluon.html.BODY'>, 'BR': <class 'gluon.html.BR'>, 'CENTER': <class 'gluon.html.CENTER'>, 'CLEANUP': <class 'gluon.validators.CLEANUP'>, 'CODE': <class 'gluon.html.CODE'>, 'CRYPT': <class 'gluon.validators.CRYPT'>, ...}"
p116
sS'ccode'
p117
S'<code object <module> at 0x8dd70b0, file "/home/...usic_Library/views/default/mymusic.html", line 1>'
p118
ssS'lnum'
p119
I188
sS'lines'
p120
(dp121
I192
S'        # XXX Show exception in Wing IDE if running in debugger'
p122
sI183
S'        if type(code) == types.CodeType:'
p123
sI184
S'            ccode = code'
p124
sI185
S'        else:'
p125
sI186
S'            ccode = compile2(code,layer)'
p126
sI187
S''
sI188
S'        exec ccode in environment'
p127
sI189
S'    except HTTP:'
p128
sI190
S'        raise'
p129
sI191
S'    except Exception:'
p130
ssS'call'
p131
S'(code=\'response.write(\\\'<!DOCTYPE html PUBLIC "-//W3C//D...iv>\\\\n</div>\\\\n\\\\n</body>\\\\n</html>\\\\n\\\', escape=False)\', environment={\'A\': <class \'gluon.html.A\'>, \'Auth\': <class \'gluon.tools.Auth\'>, \'B\': <class \'gluon.html.B\'>, \'BEAUTIFY\': <class \'gluon.html.BEAUTIFY\'>, \'BODY\': <class \'gluon.html.BODY\'>, \'BR\': <class \'gluon.html.BR\'>, \'CENTER\': <class \'gluon.html.CENTER\'>, \'CLEANUP\': <class \'gluon.validators.CLEANUP\'>, \'CODE\': <class \'gluon.html.CODE\'>, \'CRYPT\': <class \'gluon.validators.CRYPT\'>, ...}, layer=\'/home/aakarshit/Desktop/python/web2py/applications/Music_Library/views/default/mymusic.html\')'
p132
sS'func'
p133
S'restricted'
p134
sa(dp135
g111
S'/home/aakarshit/Desktop/python/web2py/applications/Music_Library/views/default/mymusic.html'
p136
sg113
(dp137
S'div'
p138
S'undefined'
p139
sS'builtinid'
p140
S'<built-in function id>'
p141
ssg119
I57
sg120
(dp142
I64
S'response.write(\'\\n         </h2>\\n         </div>\\n\\n    </div>\\n  </div>\\n  <div id="mainCont">\\n    <div id="leftCol">\\n      <div id="welcomeBox">\\n\\n        \\n        \\n      </div>\\n      <div id="playListTop">\\n        <h3>MY SONGS</h3>\\n\\n      </div>\\n      \', escape=False)'
p143
sI65
S'import time'
p144
sI66
S'response.write(\'\\n       <div id="playListBody">\\n        <div class="head">\\n          <p class="left">PLAY</p>\\n          <p class="centr">TRACK</p>\\n          <p class="right">ARTIST</p>\\n          <p class="right">ALBUM</p>\\n          <p class="rightl">TIME</p>\\n        </div>\\n       \', escape=False)'
p145
sI67
S'flag=1'
p146
sI48
S'response.write(\'\\n</head>\\n<body>\\n\\n<div class="flash">\', escape=False)'
p147
sI49
S"response.write(response.flash or '')"
p148
sI50
S'response.write(\'</div>\\n\\n\\n<div id="main">\\n  <div id="header">\\n   <div id="menu"> <a href="\', escape=False)'
p149
sI51
S"response.write(URL(r=request,f='user',args='logout',c='default'))"
p150
sI52
S'response.write(\'">LOGOUT </a>\\n     <a href="#">ABOUT US </a>\\n      <a href="\', escape=False)'
p151
sI53
S"response.write(URL(r=request,f='playlist',c='default'))"
p152
sI54
S'response.write(\'">PLAYLIST </a>\\n       <a href="\', escape=False)'
p153
sI55
S"response.write(URL(r=request,f='mymusic',c='default'))"
p154
sI56
S'response.write(\'">MY SONGS</a>\\n       <a href="\', escape=False)'
p155
sI57
S"response.write(URL(r=request,f=newlink,c='default'))"
p156
sI58
S'response.write(\'">UPLOAD </a>\\n        <a href="\', escape=False)'
p157
sI59
S"response.write(URL(r=request,f='home',c='default'))"
p158
sI60
S'response.write(\'">HOME</a> </div>\\n    <div id="header-Bottom">\\n      <div id="logoBlock">\\n        <h1>My Music</h1>\\n        <p>EVERYMUSIC YOU WANT TO LISTEN </p>\\n      </div>\\n      <div id="navBlock">\\n        \\n        <h2>\\n        <img src="\', escape=False)'
p159
sI61
S"response.write(URL(r=request,f='download',args=session.auth.user.pic))"
p160
sI62
S'response.write(\'"  width="75px" height="75"/>\\n            \', escape=False)'
p161
sI63
S'response.write((session.auth.user.first_name).capitalize())'
p162
ssg131
S'()'
p163
sg133
S'<module>'
p164
sa(dp165
g111
S'/home/aakarshit/Desktop/python/web2py/gluon/html.py'
p166
sg113
(dp167
S'global URL'
p168
S'<function URL>'
p169
sS'args'
p170
S'()'
p171
sS'kwargs'
p172
S"{'c': 'default', 'f': <Storage {'function': 'mymusic', 'body': <cStrin... 11, 30, 29, 395071), 'post_vars': <Storage {}>}>, 'r': <Storage {'function': 'mymusic', 'body': <cStrin... 11, 30, 29, 395071), 'post_vars': <Storage {}>}>}"
p173
ssg119
I379
sg120
(dp174
I374
S"                kwargs['f'] = args[0]"
p175
sI375
S'                args = []'
p176
sI376
S"            if len(args) == 2 and not 'f' in kwargs and not 'c' in kwargs:"
p177
sI377
S"                kwargs['c'], kwargs['f'] = args[0], args[1]"
p178
sI378
S'                args = []'
p179
sI379
S'        return URL(*args, **kwargs)'
p180
sI380
S'    _URL.__doc__ = URL.__doc__'
p181
sI381
S''
sI382
S'    # probably ugly work-around for the lambda call. Want for hash_vars to be an optional argument'
p182
sI383
S'    _URL.verify = lambda request, hmac_key, *hash_vars: verifyURL(request, hmac_key, *hash_vars)'
p183
ssg131
S"(*args=(), **kwargs={'c': 'default', 'f': <Storage {'function': 'mymusic', 'body': <cStrin... 11, 30, 29, 395071), 'post_vars': <Storage {}>}>, 'r': <Storage {'function': 'mymusic', 'body': <cStrin... 11, 30, 29, 395071), 'post_vars': <Storage {}>}>})"
p184
sg133
S'_URL'
p185
sa(dp186
g111
S'/home/aakarshit/Desktop/python/web2py/gluon/html.py'
p187
sg113
(dp188
S'builtinSyntaxError'
p189
S"<type 'exceptions.SyntaxError'>"
p190
ssg119
I214
sg120
(dp191
I209
S"            function, extension = f.split('.', 1)"
p192
sI210
S'        else:'
p193
sI211
S'            function = f'
p194
sI212
S''
sI213
S'    if not (application and controller and function):'
p195
sI214
S"        raise SyntaxError, 'not enough information to build the url'"
p196
sI215
S''
sI216
S'    if not isinstance(args, (list, tuple)):'
p197
sI217
S'        args = [args]'
p198
sI218
S''
ssg131
S"(a=None, c='default', f=<Storage {'function': 'mymusic', 'body': <cStrin... 11, 30, 29, 395071), 'post_vars': <Storage {}>}>, r=<Storage {'function': 'mymusic', 'body': <cStrin... 11, 30, 29, 395071), 'post_vars': <Storage {}>}>, args=[], vars={}, anchor='', extension=None, env=<Storage {'wsgi_multithread': True, 'http_accept..., 'path_info': '/Music_Library/default/mymusic'}>, hmac_key=None, hash_vars=True)"
p199
sg133
S'URL'
p200
sasS'pyver'
p201
S'Python 2.6.5: /usr/bin/python'
p202
sS'session'
p203
(dp204
S'_formkey[no_table_create]'
p205
S"'aa130c81-8007-4712-8654-5de1c98668b9'"
p206
sS'string'
p207
S"' '"
p208
sS'flash'
p209
S'None'
p210
sS'auth'
p211
S"<Storage {'expiration': 3600, 'user': <Storage {..., 2, 10, 11, 30, 29, 395071), 'remember': False}>"
p212
sS'type1'
p213
S"'All'"
p214
sS'_formkey[login]'
p215
S"'c7b00b89-f81c-4948-8c26-8966a2bd2d67'"
p216
ssS'etype'
p217
S"<type 'exceptions.SyntaxError'>"
p218
sS'date'
p219
S'Thu Feb 10 11:30:29 2011'
p220
sS'response'
p221
(dp222
S'status'
p223
S'200'
p224
sg71
S'<cStringIO.StringO object>'
p225
sg88
S"<SimpleCookie: session_id_Music_Library='127.0.0.1-f6073a7a-5d4f-4849-b8c9-66821c401173'>"
p226
sS'_vars'
p227
S"{'byme': <gluon.dal.Rows object>, 'down': <gluon.dal.Rows object>, 'newlink': <Storage {'function': 'mymusic', 'body': <cStrin... 11, 30, 29, 395071), 'post_vars': <Storage {}>}>, 'next': 0, 'pageno': 0, 'pre': 0, 'recent': <gluon.dal.Rows object>}"
p228
sS'title'
p229
S"'Music_Library'"
p230
sS'session_file'
p231
S"<open file '/home/aakarshit/Desktop/python/web2p...6073a7a-5d4f-4849-b8c9-66821c401173', mode 'rb+'>"
p232
sS'flash'
p233
S"''"
p234
sS'_custom_rollback'
p235
S'None'
p236
sS'session_id'
p237
S"'127.0.0.1-f6073a7a-5d4f-4849-b8c9-66821c401173'"
p238
sS'headers'
p239
S"<Storage {'Expires': 'Thu, 10 Feb 2011 06:00:29 ...he, must-revalidate, post-check=0, pre-check=0'}>"
p240
sS'meta'
p241
S"<Storage {'keywords': 'bla bla bla', 'description': 'describe your app', 'author': 'you'}>"
p242
sS'session_filename'
p243
S"'/home/aakarshit/Desktop/python/web2py/applicatio...ns/127.0.0.1-f6073a7a-5d4f-4849-b8c9-66821c401173'"
p244
sS'postprocessing'
p245
S'[]'
p246
sS'menu'
p247
S"[(<lazyT 'Index'>, False, <gluon.html.XML object>, []), (<lazyT 'Edit'>, False, <gluon.html.XML object>, [(<lazyT 'Controller'>, False, <gluon.html.XML object>), (<lazyT 'View'>, False, <gluon.html.XML object>), (<lazyT 'Layout'>, False, <gluon.html.XML object>), (<lazyT 'Stylesheet'>, False, <gluon.html.XML object>), (<lazyT 'DB Model'>, False, <gluon.html.XML object>), (<lazyT 'Menu Model'>, False, <gluon.html.XML object>), (<lazyT 'Database'>, False, <gluon.html.XML object>)])]"
p248
sS'_view_environment'
p249
S"{'A': <class 'gluon.html.A'>, 'Auth': <class 'gluon.tools.Auth'>, 'B': <class 'gluon.html.B'>, 'BEAUTIFY': <class 'gluon.html.BEAUTIFY'>, 'BODY': <class 'gluon.html.BODY'>, 'BR': <class 'gluon.html.BR'>, 'CENTER': <class 'gluon.html.CENTER'>, 'CLEANUP': <class 'gluon.validators.CLEANUP'>, 'CODE': <class 'gluon.html.CODE'>, 'CRYPT': <class 'gluon.validators.CRYPT'>, ...}"
p250
sS'subtitle'
p251
S"<lazyT 'customize me!'>"
p252
sS'session_id_name'
p253
S"'session_id_Music_Library'"
p254
sS'_custom_commit'
p255
S'None'
p256
sS'_caller'
p257
S'<function <lambda>>'
p258
sS'files'
p259
S'[<gluon.html.XML object>, <gluon.html.XML object>, <gluon.html.XML object>, <gluon.html.XML object>, <gluon.html.XML object>, <gluon.html.XML object>, <gluon.html.XML object>, <gluon.html.XML object>, <gluon.html.XML object>, <gluon.html.XML object>, <gluon.html.XML object>, <gluon.html.XML object>, <gluon.html.XML object>, <gluon.html.XML object>, <gluon.html.XML object>, <gluon.html.XML object>]'
p260
sS'view'
p261
S"'default/mymusic.html'"
p262
ssS'locals'
p263
(dp264
g69
S'None'
p265
sS'a'
S'None'
p266
sS'c'
S"'default'"
p267
sg77
g20
sg75
S'None'
p268
sS'f'
S"<Storage {'function': 'mymusic', 'body': <cStrin... 11, 30, 29, 395071), 'post_vars': <Storage {}>}>"
p269
sg51
S'[]'
p270
sS'hash_vars'
p271
S'True'
p272
sS'hmac_key'
p273
S'None'
p274
sg86
S"'default'"
p275
sg90
S"'Music_Library'"
p276
sg96
S"<Storage {'wsgi_multithread': True, 'http_accept..., 'path_info': '/Music_Library/default/mymusic'}>"
p277
sS'r'
S"<Storage {'function': 'mymusic', 'body': <cStrin... 11, 30, 29, 395071), 'post_vars': <Storage {}>}>"
p278
sS'anchor'
p279
S"''"
p280
sssS'traceback'
p281
S'Traceback (most recent call last):\n  File "/home/aakarshit/Desktop/python/web2py/gluon/restricted.py", line 188, in restricted\n    exec ccode in environment\n  File "/home/aakarshit/Desktop/python/web2py/applications/Music_Library/views/default/mymusic.html", line 57, in <module>\n    <div id="playListBody">\n  File "/home/aakarshit/Desktop/python/web2py/gluon/html.py", line 379, in _URL\n    return URL(*args, **kwargs)\n  File "/home/aakarshit/Desktop/python/web2py/gluon/html.py", line 214, in URL\n    raise SyntaxError, \'not enough information to build the url\'\nSyntaxError: not enough information to build the url\n'
p282
s.