(dp1
S'output'
p2
S''
sS'layer'
p3
S'/home/aakarshit/Desktop/python/web2py/applications/Music_Library/controllers/default.py'
p4
sS'code'
p5
S'# -*- coding: utf-8 -*- \n\n#########################################################################\n## This is a samples controller\n## - index is the default action of any application\n## - user is required for authentication and authorization\n## - download is for downloading files uploaded in the db (does streaming)\n## - call exposes all registered services (none by default)\n#########################################################################  \n\n#default homepage redirected to home\nauth.settings.create_user_groups = False\n@auth.requires_login()\ndef index():\n    """\n    example action using the internationalizatioREADMEn operator T and flash\n    rendered by views/default/index.html or views/generic.html\n    """\n    redirect(URL(r=request,f=\'home\'))\n    return dict(message=T(\'Hello World\'))\n\n#function for user login/logout\ndef user():\n        \n    if request.args(0)==\'logout\':\n        ip=0;\n        down=0;\n        for i in db(db.ip_add.ip==str(request.env.remote_addr)).select():\n            ip=i.id\n            down=i.hits+1   \n        if ip:  db(db.ip_add.id==ip).update(hits=down,last=request.now,port=request.env.remote_port)\n        else:  db.ip_add.insert(ip=str(request.env.remote_addr),hits=0,last=request.now,port=request.env.remote_port)\n        session.clear()     #if requestfor logout clear the session\n        redirect(URL(r=request,f=\'user\',args=\'login\'))#redirect to login page\n    \n    """\n    exposes:\n    http://..../[app]/default/user/login \n    http://..../[app]/default/user/logout\n    http://..../[app]/default/user/register\n    http://..../[app]/default/user/profile\n    http://..../[app]/default/user/retrieve_password\n    http://..../[app]/default/user/change_password\n    use @auth.requires_login()\n        @auth.requires_membership(\'group name\')\n        @auth.requires_permission(\'read\',\'table name\',record_id)\n    to decorate functions that need access control\n    """\n    \n    down=db(db.song.id>0).select(orderby=~db.song.nod,limitby=(0,10))         #contains details of top download\n    recent=db(db.song.id>0).select(orderby=~db.song.doup,limitby=(0,4))       #contains details of recently uploaded files\n    return dict(form=auth(),down=down,recent=recent)\n\n#the logout function\ndef logout():\n    session.clear()\n    redirect(URL(r=request,f=\'index\'))\n    return \n\n\n#the page to register\ndef register():\n    session.clear()\n    form=SQLFORM(db.auth_user)\n    down=db(db.song.id>0).select(orderby=~db.song.nod,limitby=(0,10))\n    recent=db(db.song.id>0).select(orderby=~db.song.doup,limitby=(0,4))\n        \n    if form.accepts(request.vars,session):\n            redirect(URL(r=request,f=\'user\',args=\'login\'))#if registeration is sucessful  redirct to homepage\n            \n    return dict(form=form,down=down,recent=recent)\n\n#default function to download the filea in database\n@auth.requires_login()\ndef download():\n     \n    if(request.vars.has_key(\'songid\')):  #if it is called to download the no of download of that song is increased by one\n        rat1=db(db.plugin_rating_master.id>0).select()\n        rat=3.0\n        for i in rat1:\n            rat=i.rating\n        so=int(request.vars[\'songid\'])\n        curr=db(db.song.id==so).select()\n        down=0\n        rat1=3.0\n        for i in curr:\n             down=int(i.nod)+1\n             rat1=i.rating\n        rat=((rat1*(down-1))+rat)/down\n        db(db.song.id==so).update(nod=down,rating=rat)\n        \n    """\n    allows downloading of uploaded files\n    http://..../[app]/default/download/[filename]\n    """\n    return response.download(request,db)\n\n\ndef call():\n    """\n    exposes services. for example:\n    http://..../[app]/default/call/jsonrpc\n    decorate with @services.jsonrpc the functions to expose\n    supports xml, json, xmlrpc, jsonrpc, amfrpc, rss, csv\n    """\n    session.forget()\n    return service()\n\n#controller for homepage\n\n#@auth.requires_membership(\'administration\')\n\n\n@auth.requires_login()\ndef home():\n    admin=0\n  \n  \n    if session.auth.user.admin_priv == True: \n        if auth.has_membership(\'Secret Agent\', session.auth.user.id) == True:\n            auth.add_membership(\'Secret Agent\', session.auth.user.id)\n            print 1\n        \n    if session.auth.user.admin_priv == False:\n        if auth.has_membership(\'Secret Agent\', session.auth.user.id) == True:\n            auth.del_membership(\'Secret Agent\', session.auth.user.id) \n            print 2       \n        \n    if session.auth.user.admin_priv == True:\n       print 3 \n       \n    if session.auth.user.admin_priv == False:\n       print 4 \n       \n    if auth.has_membership(\'Secret Agent\', session.auth.user.id) == True:\n       print 5 \n       \n    if auth.has_membership(\'Secret Agent\', session.auth.user.id) == False:\n       print 6 \n    \n                                   \n    \n    if(auth.has_membership(\'adminstration\')):admin=1\n        \n    form = SQLFORM.factory(\n            Field(\'Search\'),\n            Field(\'type\',\'boolean\', requires=IS_IN_SET([\'All\',\'Artist\',\'Album\',\'Titles\']),widget=SQLFORM.widgets.radio.widget,default=\'All\'))\n    g=[]\n     \n    if session.string==None:\n          session.string=" "\n          session.type1="All"\n    string=session.string\n    type1=session.type1\n    pageno=0\n    next=0\n    pre=0\n    no=15\n        \n        \n    if request.vars.has_key(\'pageno\'):\n          pageno=int(request.vars[\'pageno\'])\n          no=pageno*15+15\n    if form.accepts(request.vars, session):\n          session.string=request.vars[\'Search\']\n          session.type1=request.vars[\'type\']\n          redirect(URL(r=request,f=\'home\'))\n    elif form.errors:\n          response.flash = \'form has errors\'\n       \n    g=process_search(string,type1)\n    count=len(g)\n       \n    found=""\n    down=db(db.song.id>0).select(orderby=~db.song.nod,limitby=(0,10))\n    recent=db(db.song.id>0).select(orderby=~db.song.doup,limitby=(0,4))\n    tmp=db(db.song.id>0).select()\n    if(g):\n          found=tmp.find(lambda x: x.id in g)\n    else: response.flash=\'no song found\'\n             \n    if pageno>0:\n          pre=1\n    if no <count:\n          next=1\n    session.string=string\n    session.type1=type1 \n    return dict(admin=admin,form=form,found=found,pageno=pageno,pre=pre,next=next,count=count,down=down,recent=recent)\n    \nimport os\n@auth.requires_membership(\'adminstration\')\ndef ips():\n    ip12=db(db.ip_add.id>0).select()\n    return dict(ip=ip12)\n    \nimport re\n#function that process the search string and returns the ids of mathched results\n@auth.requires_login()\ndef process_search(s1,p):\n    s=\'\\w*\\s*\\W*\'\n    reg=s\n    for i in s1.split():\n        reg=reg+i+s         #create a regular expression\n    l=[]\n    #search for the regx in database\n    for i in db(db.song.id>0).select(db.song.ALL):\n        tmp=i.id\n       \n        if((p==\'All\' or p==\'Album\')and (re.search(reg,i.album,re.IGNORECASE))):\n           if(i.id not in l):  l+=[i.id]\n        if((p==\'All\' or p==\'Titles\')and (re.search(reg,i.name,re.IGNORECASE))):\n           if(i.id not in l):  l+=[i.id]\n        if((p==\'All\' or p==\'Artist\')and (re.search(reg,i.artist,re.IGNORECASE))):\n           if(i.id not in l):l+=[i.id]   \n         \n    \n    return l\n \nimport os\n\n#controler for upload page\n@auth.requires_membership(\'Secret Agent\')\ndef upload():\n    up_form=SQLFORM(db.files)\n    bol =\'dskh\' \n \n    if up_form.accepts(request.vars,session):\n            response.flash=(T(\'file uploaded\'))\n            path = os.path.join(request.folder,\'uploads\',up_form.vars[\'file\'])\n            bol=get_info(path,up_form.vars[\'id\'])   #get the metadata of uploaded file\n            if(bol[\'done\']==True):\n                 bol=bol[\'m\']\n                 #insert the metadata in database\n                 db.song.insert(file=up_form.vars[\'id\'],name=bol[\'title\'][0],doup=request.now,lyrics=bol[\'lyrics\'],length=bol[\'length\'],btr=bol[\'bit_rate\'], artist=bol[\'artist\'][0], album=bol[\'album\'][0], year=int(bol[\'date\']),genere=bol[\'genere\'][0],user_id=session.auth.user.id,pic=bol[\'img\'])\n                         \n            else:db(db.file.id==up_form.vars[\'id\']).delete()#if there is error in extracting metadata delete the file\n    elif up_form.errors:\n           response.flash=(T(\'error occured\'))\n    \n    down=db(db.song.id>0).select(orderby=~db.song.nod,limitby=(0,10)) #contains details of recently  uploadded files\n    recent=db(db.song.id>0).select(orderby=~db.song.doup,limitby=(0,4)) #contains details of recently uploaded files\n    byme=db(db.song.user_id==session.auth.user.id).select(orderby=~db.song.doup,limitby=(0,15)) #contains details of top songs uploaded by user\n    return dict(form=up_form,down=down,recent=recent,byme=byme)    \n\n\n#controller  for mymusic page\n@auth.requires_login()\ndef mymusic():\n        down=db(db.song.id>0).select(orderby=~db.song.nod,limitby=(0,10))#contains details of recently  uploadded files\n        recent=db(db.song.id>0).select(orderby=~db.song.doup,limitby=(0,4)) #contains details of recently uploaded files\n        \n        pageno=0\n        next=0\n        pre=0\n        no=15\n        n=15\n        if request.vars.has_key(\'pageno\'):\n            pageno=int(request.vars[\'pageno\'])\n            no=pageno*15+15                             #get the current page no\n        count=db(db.song.user_id==session.auth.user.id).count() #get the total no of entries\n         \n        if pageno > 0:\n            pre=1\n        if no < count:\n            next=1\n        else :\n            no-=15\n            n=count-no \n        byme=db(db.song.user_id==session.auth.user.id).select(orderby=~db.song.doup,limitby=(pageno*15,n))#contains details of top songs uploaded by user\n        return dict(pageno=pageno,pre=pre,next=next,down=down,recent=recent,byme=byme)\nimport os\n\n#controller forhandle playlist page\n@auth.requires_login()\ndef playlist():    \n        pageno=0\n        next=0\n        pre=0\n        no=11\n        n=11\n        if request.vars.has_key(\'pageno\'):\n            pageno=int(request.vars[\'pageno\'])      #get the current page no\n            if pageno < 0 : redirect(URL(r=request,f=\'user\',c=\'default\',args=\'logout\'))\n            no=pageno*11+11\n        \n        byme=db(db.playlist.user==session.auth.user.id).select()#contains details of top songs uploaded by user\n        \n        iid=0  \n        \n          \n        li=[]\n        for i in byme:\n            li+=[i.id]\n        if len(li)>0: iid=li[0]\n        \n                \n        if request.vars.has_key(\'id\'):\n            iid=int(request.vars[\'id\'])    \n            \n        if len(li)>0 and iid not in li: redirect(URL(r=request,f=\'user\',c=\'default\',args=\'logout\'))#if passed vars is not in range callfor logout\n        \n        count=db(db.playlist.user==session.auth.user.id).count()#get the total no of entries\n        \n        if pageno*11 > count: redirect(URL(r=request,f=\'user\',c=\'default\',args=\'logout\'))#if passed vars is not in range callfor logout\n        elif pageno*11==count and pageno >0:redirect(URL(r=request,f=\'playlist\',c=\'default\',vars=dict(pageno=pageno-1)))#redirect to previouspage\n      \n        song=db((db.list.list==iid)&(db.list.song==db.song.id)&(db.song.file==db.files.id)).select()  #order by orders\n        pname=""\n        for i in db(db.playlist.id==iid).select():\n             pname=i.name\n        #create the playlist .xfps file\n        str1=\'\xef\xbb\xbf<?xml version="1.0" encoding="UTF-8" ?> \\n<playlist version="0" xmlns="http://xspf.org/ns/0/">\\n <title>\'\n        str2=\'\'\' \n         </title>\n         <trackList>\'\'\'\n        str3=\'\'\'<track>\n          <location>\'\'\'\n\n        str4=\'\'\'</location>\n            <image>\'\'\'\n        str5=\'\'\'</image>\n        <annotation>\'\'\'\n        str6=\'\'\'</annotation>\n            </track>\'\'\'\n        str7=\'\'\'</trackList>\n            </playlist>\'\'\'\n        if len(li)>0 :\n            plist=file(os.path.join(request.folder,\'static\',(\'tmp\'+\'.xspf\')),\'w\')\n            plist.write(str1)\n            plist.write(pname)\n            plist.write(str2)\n        \n            for i in song:\n               plist.write(str3)\n               plist.write(str(URL(r=request,f=\'download\',c=\'default\',args=i.files.file)))\n               plist.write(str4)\n               plist.write(str(URL(request.application,\'static\',i.song.pic)))\n               plist.write(str5)\n               plist.write(i.song.name)\n               plist.write(str6)\n               #response.flash=song\n            plist.write(str7)        \n            plist.close()\n            #the playlist is created\n            \n        if pageno>0:\n            pre=1\n        if no <count:\n            next=1\n        else :\n            no-=11\n            n=count-no\n            \n        form = SQLFORM.factory(Field(\'new\',\'string\',label="NEW PLAYLIST"))#form to insert new playlist\n            \n        if form.accepts(request.vars,session):\n            response.flash=\'New Playlist created\'\n            db.playlist.insert(user=session.auth.user.id,name=form.vars[\'new\'])\n            redirect(URL(r=request,f=\'playlist\',vars=dict(pageno=pageno)))\n        elif form.errors:\n                response.flash=\'error\'\n        \n                    \n        byme=db(db.playlist.user==session.auth.user.id).select(limitby=(pageno*11,n))#contains details of top songs uploaded by user\n        scr1=" " \n        if len(li)>0:   \n            scr1=URL(request.application,\'static\',\'tmp\'+\'.xspf\')\n        scr2=URL(request.application,\'static\',os.path.join(\'ply\',\'xspf_player.swf\'))\n            \n        ply=XML(\'<object type="application/x-shockwave-flash" width="650" height="600" data="%(scr2)s?playlist_url=%(scr1)s">  <param name="movie"  value="%(scr2)s?autoplay=1&autoload=1&playlist_url=%(scr1)s"/> <embed  allowfullscreen="false" allowscriptaccess="always" src="%(scr2)s?playlist_url=%(scr1)s pluginspage=\xe2\x80\x9dhttp://www.macromedia.com/go/getflashplayer\xe2\x80\x9d" ></embed> </object>\'%dict(scr1=scr1,scr2=scr2))#the XML lines for player\n       \n        \n            \n        return dict(form=form,ply=ply,pageno=pageno,pre=pre,next=next,byme=byme,pname=pname)\n    \n#the controller for play song page\n@auth.requires_login()\ndef play():\n    \n        so=int(request.args(0))\n        som1=db(db.song.id==so).select()\n        if (db(db.song.id==so).count())<=0:\n            redirect(URL(r=request,f=\'user\',args=\'logout\'))#call for logout if vars not in range\n        \n        soid=0\n        for i in som1:\n          soid=i.file\n          sopic=i.pic\n          sonam=i.name\n        som=db(db.files.id==soid).select()\n        filn=""\n        for i in som:\n            filn=i.file\n        #create form for comment\n        form = SQLFORM.factory(Field(\'comment\',\'text\'))\n        \n        db.list.song.default=so\n        db.list.song.readable=False\n        db.list.favourite.readable=False\n        db.list.listen.readable=False\n        db.list.orders.readable=False\n        db.list.song.writable=False\n        db.list.favourite.writable=False\n        db.list.listen.writable=False\n        db.list.orders.writable=False\n        \n        myplaylist=[]\n        idform=[]\n        for i in db((db.playlist.user==session.auth.user.id)).select():\n              myplaylist+=[i.name]\n              idform+=[i.id]\n        \n   \n        db.list.list.requires=IS_IN_SET(idform,myplaylist)\n        form1=SQLFORM(db.list)\n        response.flash=sonam\n        if form1.accepts(request.vars,session):\n            response.flash="SONG ADDED TO PLAYLIST"\n        if form.accepts(request.vars,session):\n            response.flash=\'comment added\'\n            db.comments.insert(user_id=session.auth.user.id,song_id=so,comment=form.vars[\'comment\'],date=request.now)\n            \n             \n        sopic=URL(request.application,\'static\',sopic)#the album art pic\n        pic=XML(\'<img src=%(sopic)s align="center"  width="240px" height="240"\\>\'% dict(sopic=sopic)) \n        src=URL(r=request,c=\'default\',f=\'download\',args=filn)\n        width=\'400\'\n        height=45\n        """\n        ## Embeds a media file (such as flash video or an mp3 file)\n        - ``src`` is the src of the video\n        - ``width`` is the width of the image\n        - ``height`` is the height of the image\n        """\n        #the music player\n        ply=XML(\'<embed allowfullscreen="false" allowscriptaccess="always" flashvars="height=%(height)s&width=%(width)s&file=%(src)s" height="%(height)spx" src="%(url)s" width="%(width)spx"></embed>\'%dict(url=URL(request.application,\'static\',\'plugin_wiki/mediaplayer.swf\'),src=src,width=width,height=height))\n        \n        #select the comment for the song\n        comm=db((db.comments.song_id==so) &( db.comments.user_id==db.auth_user.id)).select(db.auth_user.first_name,db.auth_user.last_name,db.comments.comment,db.comments.date,db.auth_user.pic,db.auth_user.id,db.comments.id,orderby=~db.comments.date,limitby=(0,10))\n        down=db(db.song.id>0).select(orderby=~db.song.nod,limitby=(0,10))\n        recent=db(db.song.id>0).select(orderby=~db.song.doup,limitby=(0,4))\n        byme=db(db.song.user_id==session.auth.user.id).select(orderby=~db.song.doup,limitby=(0,15))\n        \n        return dict(ply=ply,down=down,recent=recent,byme=byme,comm=comm,form=form,pic=pic,som=som1,ffff=filn,form1=form1)   \n\n#contrller for the deleteplaylist function\n@auth.requires_login()        \ndef deletplaylist():\n    playl=int(request.vars[\'id\'])\n    pag=int(request.vars[\'pageno\'])\n    db(db.list.list==playl).delete()\n    db(db.playlist.id==playl).delete()\n    redirect(URL(r=request, f=\'playlist\',vars=dict(pageno=pag)))\n    return\n\n#contrller for the deletecomment function\n@auth.requires_login()\ndef deletcomment():\n    song=int(request.vars[\'song\'])\n    com=int(request.vars[\'com\'])\n    db(db.comments.id==com).delete()\n    redirect(URL(r=request, f=\'play\',args=song))\n    return        \n\n\n@auth.requires_membership(\'adminstration\')\ndef admins():\n    names=[]\n    ids=[]\n    for i in db(db.auth_user.id>0).select():\n              ids+=[i.id]\n              names+=[i.first_name+\' \'+i.last_name]\n    for i in db((db.auth_user.id==db.auth_membership.user_id)).select():\n           k=ids.index(i.auth_user.id)\n           del(ids[k])\n           del(names[k])\n      #  response.flash="Deleting Options"\n           form2 = SQLFORM.factory(\n            Field(\'user\',requires=IS_IN_SET(ids,names),label=\'Delete User\'))\n    son=db(db.song.id>0).select()\n    sonn=[]\n    sonid=[]\n    for i in son:\n        sonid+=[i.id]\n        sonn+=[i.name+\' artist: \'+i.artist]   \n    if request.vars.has_key(\'user\'):\n       #if form2.accepts(request.vars,session):\n       if not form2.errors:\n        db(db.comments.user_id==request.vars[\'user\']).delete()\n        for i in db(db.playlist.user==request.vars[\'user\']).select():\n            db(db.list.list==i.id).delete()\n        db(db.playlist.user==request.vars[\'user\']).delete()\n        db(db.auth_user.id==request.vars[\'user\']).delete()\n        redirect(URL(r=request,f=\'admins\'))\n       elif form2.errors: pass  \n    \n    form1 = SQLFORM.factory(\n            Field(\'song\',requires=IS_IN_SET(sonid,sonn),label=\'Delete Song\'))\n    \n    if form1.accepts(request.vars, session):\n           # response.flash="qefw"\n            \n        db(db.comments.song_id==request.vars[\'song\']).delete()\n        \n        art=db(db.song.id==request.vars[\'song\']).select()\n        artpic=""\n        for i in art:\n            artpic=os.path.join(request.folder,\'static\',i.pic)\n        try:\n            os.remove(artpic)\n        except OSError:\n             response.flash="error"\n        for i in db((db.song.id==request.vars[\'song\'])&(db.files.id==db.song.file)).select():\n            db(db.files.id==i.files.id).delete()\n        db(db.song.id==request.vars[\'song\']).delete()\n        redirect(URL(r=request,f=\'admins\'))\n        \n    down=db(db.song.id>0).select(orderby=~db.song.nod,limitby=(0,10))\n    recent=db(db.song.id>0).select(orderby=~db.song.doup,limitby=(0,4))\n    return dict(down=down,recent=recent,form=form2,form1=form1)\n\n\n\n\n\nfrom mutagen.mp3 import MP3\nfrom mutagen.easyid3 import EasyID3\nimport mutagen.id3\nfrom mutagen.id3 import ID3, TIT2, TALB, TPE1, TPE2, COMM, USLT, TCOM, TCON\n\nfrom mutagen.id3 import ID3NoHeaderError\nfrom mutagen.mp3 import HeaderNotFoundError\n\n#function to extract metadata from MP3 file\n@auth.requires_login()\ndef get_info(f,filen): \n    filen=str(filen)\n   \n    m={}\n    try:\n        audio = MP3(f)\n    except HeaderNotFoundError:\n        response.flash="Error Reading file"\n        ##remove the entry\n        return dict(m=m,done=False) \n    try:\n       tagg = ID3(f)\n    except ID3NoHeaderError:\n        response.flash="Error Reading file"\n        ##remove the entry\n        return dict(m=m,done=False)\n   \n    ext=\'.img\'\n    flag=1\n    imgfilename=""\n    #lookfor albumart\n    for frame in tagg.getall("APIC"):\n                flag=2\n                if (frame.mime == "image/jpeg") or (frame.mime == "image/jpg"): ext = ".jpg"\n                if frame.mime == "image/png": ext = ".png"\n                if frame.mime == "image/gif": ext = ".gif"\n\n                filen=filen+ext\n                #storethe album art\n                imgfilename=os.path.join(request.folder,\'static\',filen)\n             \n                myfile = file(imgfilename, \'w\')\n                myfile.write(frame.data)\n                myfile.close()\n    if(flag==1):\n                filen=filen+\'.jpg\'\n                imgfilename=str(URL(request.folder,\'static\',\'albumart.jpg\'))\n                ff=file(imgfilename,\'r\')\n                imgfilename=os.path.join(request.folder,\'static\',filen)\n                myfile = file(imgfilename, \'w\')\n                myfile.write(ff.read())\n                myfile.close()\n                ff.close()\n    m={}            \n    m = dict(MP3(f, ID3=EasyID3))\n    l=tagg.getall(u"USLT")\n    m[\'lyrics\']=""\n    if(not(m.has_key(\'artist\'))):m[\'artist\']=[\'unknown\']\n    if(not(m.has_key(\'album\'))):m[\'album\']=[\'unknown\']\n    if(not(m.has_key(\'title\'))):m[\'title\']=[\'unknown\']\n    if(not(m.has_key(\'genere\'))):m[\'genere\']=[\'unknown\']  \n    if(not(m.has_key(\'date\'))):m[u\'date\']=[\'2014\']\n    m[\'date\']=m[\'date\'][0][:4]\n    for i in tagg.getall(u"USLT"):\n         m[\'lyrics\']=i.text\n         \n    m[\'length\']=audio.info.length\n    m[\'bit_rate\']=audio.info.bitrate/(1000)\n    m[\'img\']=filen\n    \n    return dict(m=m,done=True)\n\nresponse._vars=response._caller(home)\n'
p6
sS'snapshot'
p7
(dp8
S'exception'
p9
(dp10
S'__hash__'
p11
S"<method-wrapper '__hash__' of exceptions.ValueError object>"
p12
sS'__setattr__'
p13
S"<method-wrapper '__setattr__' of exceptions.ValueError object>"
p14
sS'__reduce_ex__'
p15
S'<built-in method __reduce_ex__ of exceptions.ValueError object>'
p16
sS'__getslice__'
p17
S"<method-wrapper '__getslice__' of exceptions.ValueError object>"
p18
sS'__getitem__'
p19
S"<method-wrapper '__getitem__' of exceptions.ValueError object>"
p20
sS'__setstate__'
p21
S'<built-in method __setstate__ of exceptions.ValueError object>'
p22
sS'__reduce__'
p23
S'<built-in method __reduce__ of exceptions.ValueError object>'
p24
sS'__str__'
p25
S"<method-wrapper '__str__' of exceptions.ValueError object>"
p26
sS'__format__'
p27
S'<built-in method __format__ of exceptions.ValueError object>'
p28
sS'__getattribute__'
p29
S"<method-wrapper '__getattribute__' of exceptions.ValueError object>"
p30
sS'__class__'
p31
S"<type 'exceptions.ValueError'>"
p32
sS'__unicode__'
p33
S'<built-in method __unicode__ of exceptions.ValueError object>'
p34
sS'__delattr__'
p35
S"<method-wrapper '__delattr__' of exceptions.ValueError object>"
p36
sS'__subclasshook__'
p37
S'<built-in method __subclasshook__ of type object>'
p38
sS'__repr__'
p39
S"<method-wrapper '__repr__' of exceptions.ValueError object>"
p40
sS'args'
p41
S'("invalid literal for int() with base 10: \'Secret Agent\'",)'
p42
sS'__dict__'
p43
S'{}'
p44
sS'__sizeof__'
p45
S'<built-in method __sizeof__ of exceptions.ValueError object>'
p46
sS'__doc__'
p47
S"'Inappropriate argument value (of correct type).'"
p48
sS'__init__'
p49
S"<method-wrapper '__init__' of exceptions.ValueError object>"
p50
sS'__new__'
p51
S'<built-in method __new__ of type object>'
p52
ssS'evalue'
p53
S"invalid literal for int() with base 10: 'Secret Agent'"
p54
sS'request'
p55
(dp56
S'function'
p57
S"'home'"
p58
sS'body'
p59
S'<cStringIO.StringO object>'
p60
sS'wsgi'
p61
S"<Storage {'start_response': <function <lambda> a...e', 'PATH_INFO': '/Music_Library/default/home'}}>"
p62
sS'extension'
p63
S"'html'"
p64
sS'vars'
p65
S'<Storage {}>'
p66
sS'cid'
p67
S'None'
p68
sS'url'
p69
S'<gluon.html.XML object>'
p70
sS'raw_extension'
p71
S'None'
p72
sg41
S'[]'
p73
sS'controller'
p74
S"'default'"
p75
sS'cookies'
p76
S"<SimpleCookie: session_id_AOE='127.0.0.1-abb8245...'127.0.0.1-6e7e6187-9c4d-4786-8889-a54ef8a0a5e1'>"
p77
sS'application'
p78
S"'Music_Library'"
p79
sS'ajax'
p80
S'False'
p81
sS'client'
p82
S"'127.0.0.1'"
p83
sS'env'
p84
S"<Storage {'wsgi_multithread': True, 'http_accept...53', 'path_info': '/Music_Library/default/home'}>"
p85
sS'raw_args'
p86
S'None'
p87
sS'get_vars'
p88
S'<Storage {}>'
p89
sS'folder'
p90
S"'/home/aakarshit/Desktop/python/web2py/applications/Music_Library/'"
p91
sS'now'
p92
S'datetime.datetime(2011, 2, 7, 18, 21, 2, 141813)'
p93
sS'post_vars'
p94
S'<Storage {}>'
p95
ssS'frames'
p96
(lp97
(dp98
S'file'
p99
S'/home/aakarshit/Desktop/python/web2py/gluon/restricted.py'
p100
sS'dump'
p101
(dp102
S'environment'
p103
S"{'A': <class 'gluon.html.A'>, 'Auth': <class 'gluon.tools.Auth'>, 'B': <class 'gluon.html.B'>, 'BEAUTIFY': <class 'gluon.html.BEAUTIFY'>, 'BODY': <class 'gluon.html.BODY'>, 'BR': <class 'gluon.html.BR'>, 'CENTER': <class 'gluon.html.CENTER'>, 'CLEANUP': <class 'gluon.validators.CLEANUP'>, 'CODE': <class 'gluon.html.CODE'>, 'COMM': <class 'mutagen.id3.COMM'>, ...}"
p104
sS'ccode'
p105
S'<code object <module> at 0x9963e78, file "/home/...s/Music_Library/controllers/default.py", line 12>'
p106
ssS'lnum'
p107
I188
sS'lines'
p108
(dp109
I192
S'        # XXX Show exception in Wing IDE if running in debugger'
p110
sI183
S'        if type(code) == types.CodeType:'
p111
sI184
S'            ccode = code'
p112
sI185
S'        else:'
p113
sI186
S'            ccode = compile2(code,layer)'
p114
sI187
S''
sI188
S'        exec ccode in environment'
p115
sI189
S'    except HTTP:'
p116
sI190
S'        raise'
p117
sI191
S'    except Exception:'
p118
ssS'call'
p119
S"(code='# -*- coding: utf-8 -*- \\n\\n######################...one=True)\\n\\nresponse._vars=response._caller(home)\\n', environment={'A': <class 'gluon.html.A'>, 'Auth': <class 'gluon.tools.Auth'>, 'B': <class 'gluon.html.B'>, 'BEAUTIFY': <class 'gluon.html.BEAUTIFY'>, 'BODY': <class 'gluon.html.BODY'>, 'BR': <class 'gluon.html.BR'>, 'CENTER': <class 'gluon.html.CENTER'>, 'CLEANUP': <class 'gluon.validators.CLEANUP'>, 'CODE': <class 'gluon.html.CODE'>, 'COMM': <class 'mutagen.id3.COMM'>, ...}, layer='/home/aakarshit/Desktop/python/web2py/applications/Music_Library/controllers/default.py')"
p120
sS'func'
p121
S'restricted'
p122
sa(dp123
g99
S'/home/aakarshit/Desktop/python/web2py/applications/Music_Library/controllers/default.py'
p124
sg101
(dp125
sg107
I598
sg108
(dp126
I587
S"    if(not(m.has_key('date'))):m[u'date']=['2014']"
p127
sI588
S"    m['date']=m['date'][0][:4]"
p128
sI589
S'    for i in tagg.getall(u"USLT"):'
p129
sI590
S"         m['lyrics']=i.text"
p130
sI591
S''
sI592
S"    m['length']=audio.info.length"
p131
sI593
S"    m['bit_rate']=audio.info.bitrate/(1000)"
p132
sI594
S"    m['img']=filen"
p133
sI595
S''
sI596
S'    return dict(m=m,done=True)'
p134
ssg119
S'()'
p135
sg121
S'<module>'
p136
sa(dp137
g99
S'/home/aakarshit/Desktop/python/web2py/gluon/globals.py'
p138
sg101
(dp139
S'self'
p140
S'undefined'
p141
sS'f'
S'<function home>'
p142
ssg107
I95
sg108
(dp143
I96
S'        self._view_environment = None'
p144
sI97
S'        self._custom_commit = None'
p145
sI98
S'        self._custom_rollback = None'
p146
sI99
S''
sI90
S"        self.flash = ''           # used by the default view layout"
p147
sI91
S'        self.meta = Storage()     # used by web2py_ajax.html'
p148
sI92
S'        self.menu = []            # used by the default view layout'
p149
sI93
S'        self.files = []           # used by web2py_ajax.html'
p150
sI94
S'        self._vars = None'
p151
sI95
S'        self._caller = lambda f: f()'
p152
ssg119
S'(f=<function home>)'
p153
sg121
S'<lambda>'
p154
sa(dp155
g99
S'/home/aakarshit/Desktop/python/web2py/gluon/tools.py'
p156
sg101
(dp157
S'action'
p158
S'<function home>'
p159
sS'a'
S'()'
p160
sS'b'
g44
ssg107
I2297
sg108
(dp161
I2292
S'                    self.environment.session.flash = self.environment.response.flash'
p162
sI2293
S'                    return call_or_redirect(self.settings.on_failed_authentication,'
p163
sI2294
S'                                            self.settings.login_url + \\'
p164
sI2295
S"                                                '?_next='+urllib.quote(next)"
p165
sI2296
S'                                            )'
p166
sI2297
S'                return action(*a, **b)'
p167
sI2298
S'            f.__doc__ = action.__doc__'
p168
sI2299
S'            f.__name__ = action.__name__'
p169
sI2300
S'            f.__dict__.update(action.__dict__)'
p170
sI2301
S'            return f'
p171
ssg119
S'(*a=(), **b={})'
p172
sg121
S'f'
sa(dp173
g99
S'/home/aakarshit/Desktop/python/web2py/applications/Music_Library/controllers/default.py'
p174
sg101
(dp175
S'global session'
p176
S"<Storage {'_formkey[no_table_create]': '7e42ddc0..., 2, 7, 18, 21, 2, 141813), 'remember': False}>}>"
p177
sS'session.auth.user.id'
p178
S'13'
p179
sS'session.auth'
p180
S"<Storage {'expiration': 3600, 'user': <Storage {...11, 2, 7, 18, 21, 2, 141813), 'remember': False}>"
p181
sS'global auth'
p182
S'<gluon.tools.Auth object>'
p183
sS'session.auth.user'
p184
S"<Storage {'first_name': 'Aakarshit', 'last_name'...c42864de6940', 'registration_key': '', 'id': 13}>"
p185
sS'auth.del_membership'
p186
S'<bound method Auth.del_membership of <gluon.tools.Auth object>>'
p187
ssg107
I126
sg108
(dp188
I128
S''
sI129
S'    if session.auth.user.admin_priv == True:'
p189
sI130
S'       print 3'
p190
sI121
S"            auth.add_membership('Secret Agent', session.auth.user.id)"
p191
sI122
S'            print 1'
p192
sI123
S''
sI124
S'    if session.auth.user.admin_priv == False:'
p193
sI125
S"        if auth.has_membership('Secret Agent', session.auth.user.id) == True:"
p194
sI126
S"            auth.del_membership('Secret Agent', session.auth.user.id)"
p195
sI127
S'            print 2'
p196
ssg119
S'()'
p197
sg121
S'home'
p198
sa(dp199
g99
S'/home/aakarshit/Desktop/python/web2py/gluon/tools.py'
p200
sg101
(dp201
S'group_id'
p202
S"'Secret Agent'"
p203
sS').delete'
p204
g141
ssg107
I2490
sg108
(dp205
I2485
S'        if log:'
p206
sI2486
S'            self.log_event(log % dict(user_id=user_id,'
p207
sI2487
S'                                      group_id=group_id))'
p208
sI2488
S'        return self.db(membership.user_id'
p209
sI2489
S'                       == user_id)(membership.group_id'
p210
sI2490
S'                                   == group_id).delete()'
p211
sI2491
S''
sI2492
S'    def has_permission('
p212
sI2493
S'        self,'
p213
sI2494
S"        name='any',"
p214
ssg119
S"(self=<gluon.tools.Auth object>, group_id='Secret Agent', user_id=13, role=None)"
p215
sg121
S'del_membership'
p216
sa(dp217
g99
S'/home/aakarshit/Desktop/python/web2py/gluon/dal.py'
p218
sg101
(dp219
S'self.query'
p220
S'<gluon.dal.Query object>'
p221
sS'tablename'
p222
S"'auth_membership'"
p223
sS'self'
p224
S'<gluon.dal.Set object>'
p225
sS'self.db._adapter.delete'
p226
S'<bound method SQLiteAdapter.delete of <gluon.dal.SQLiteAdapter object>>'
p227
sS'self.db._adapter'
p228
S'<gluon.dal.SQLiteAdapter object>'
p229
sS'self.db'
p230
S"<DAL {'auth_event': <Table {'origin': <gluon.dal..., 'id': <gluon.dal.Field object at 0xa04776c>}>}>"
p231
ssg107
I4512
sg108
(dp232
I4512
S'        return self.db._adapter.delete(tablename,self.query)'
p233
sI4513
S''
sI4514
S'    def update(self, **update_fields):'
p234
sI4515
S'        tablename = self.db._adapter.get_table(self.query)'
p235
sI4516
S'        fields = self.db[tablename]._listify(update_fields,update=True)'
p236
sI4507
S'        return self.db._adapter.select(self.query,fields,attributes)'
p237
sI4508
S''
sI4509
S'    def delete(self):'
p238
sI4510
S'        tablename=self.db._adapter.get_table(self.query)'
p239
sI4511
S'        self.delete_uploaded_files()'
p240
ssg119
S'(self=<gluon.dal.Set object>)'
p241
sg121
S'delete'
p242
sa(dp243
g99
S'/home/aakarshit/Desktop/python/web2py/gluon/dal.py'
p244
sg101
(dp245
S'query'
p246
S'<gluon.dal.Query object>'
p247
sS'self'
p248
S'<gluon.dal.SQLiteAdapter object>'
p249
sS'tablename'
p250
S"'auth_membership'"
p251
sS'self._delete'
p252
S'<bound method SQLiteAdapter._delete of <gluon.dal.SQLiteAdapter object>>'
p253
sS'sql'
p254
g141
ssg107
I868
sg108
(dp255
I864
S"            sql_w = ''"
p256
sI865
S"        return 'DELETE FROM %s%s;' % (tablename, sql_w)"
p257
sI866
S''
sI867
S'    def delete(self,tablename,query):'
p258
sI868
S'        sql = self._delete(tablename,query)'
p259
sI869
S'        ### special code to handle CASCADE in SQLite'
p260
sI870
S'        db = self.db'
p261
sI871
S'        table = db[tablename]'
p262
sI872
S"        if self.dbengine=='sqlite' and table._referenced_by:"
p263
sI863
S'        else:'
p264
ssg119
S"(self=<gluon.dal.SQLiteAdapter object>, tablename='auth_membership', query=<gluon.dal.Query object>)"
p265
sg121
g242
sa(dp266
g99
S'/home/aakarshit/Desktop/python/web2py/gluon/dal.py'
p267
sg101
(dp268
S'query'
p269
S'<gluon.dal.Query object>'
p270
sS'self'
p271
S'<gluon.dal.SQLiteAdapter object>'
p272
sS'sql_w'
p273
g141
sS'self.expand'
p274
S'<bound method SQLiteAdapter.expand of <gluon.dal.SQLiteAdapter object>>'
p275
ssg107
I862
sg108
(dp276
I864
S"            sql_w = ''"
p277
sI865
S"        return 'DELETE FROM %s%s;' % (tablename, sql_w)"
p278
sI866
S''
sI857
S'        except:'
p279
sI858
S'            return None'
p280
sI859
S''
sI860
S'    def _delete(self,tablename, query):'
p281
sI861
S'        if query:'
p282
sI862
S"            sql_w = ' WHERE ' + self.expand(query)"
p283
sI863
S'        else:'
p284
ssg119
S"(self=<gluon.dal.SQLiteAdapter object>, tablename='auth_membership', query=<gluon.dal.Query object>)"
p285
sg121
S'_delete'
p286
sa(dp287
g99
S'/home/aakarshit/Desktop/python/web2py/gluon/dal.py'
p288
sg101
(dp289
S'expression.op'
p290
S'<bound method SQLiteAdapter.AND of <gluon.dal.SQLiteAdapter object>>'
p291
sS'expression'
p292
S'<gluon.dal.Query object>'
p293
sS'expression.first'
p294
S'<gluon.dal.Query object>'
p295
sS'expression.second'
p296
S'<gluon.dal.Query object>'
p297
ssg107
I799
sg108
(dp298
I800
S'            elif not expression.first is None:'
p299
sI801
S'                return expression.op(expression.first)'
p300
sI802
S'            else:'
p301
sI803
S'                return expression.op()'
p302
sI794
S'    def expand(self,expression,field_type=None):'
p303
sI795
S'        if isinstance(expression,Field):'
p304
sI796
S'            return str(expression)'
p305
sI797
S'        elif isinstance(expression, (Expression, Query)):'
p306
sI798
S'            if not expression.second is None:'
p307
sI799
S'                return expression.op(expression.first, expression.second)'
p308
ssg119
S'(self=<gluon.dal.SQLiteAdapter object>, expression=<gluon.dal.Query object>, field_type=None)'
p309
sg121
S'expand'
p310
sa(dp311
g99
S'/home/aakarshit/Desktop/python/web2py/gluon/dal.py'
p312
sg101
(dp313
S'self'
p314
S'<gluon.dal.SQLiteAdapter object>'
p315
sS'first'
p316
S'<gluon.dal.Query object>'
p317
sS'second'
p318
S'<gluon.dal.Query object>'
p319
sS'self.expand'
p320
S'<bound method SQLiteAdapter.expand of <gluon.dal.SQLiteAdapter object>>'
p321
ssg107
I721
sg108
(dp322
I716
S''
sI717
S'    def NOT(self,first):'
p323
sI718
S"        return '(NOT %s)' % self.expand(first)"
p324
sI719
S''
sI720
S'    def AND(self,first,second):'
p325
sI721
S"        return '(%s AND %s)' % (self.expand(first),self.expand(second))"
p326
sI722
S''
sI723
S'    def OR(self,first,second):'
p327
sI724
S"        return '(%s OR %s)' % (self.expand(first),self.expand(second))"
p328
sI725
S''
ssg119
S'(self=<gluon.dal.SQLiteAdapter object>, first=<gluon.dal.Query object>, second=<gluon.dal.Query object>)'
p329
sg121
S'AND'
p330
sa(dp331
g99
S'/home/aakarshit/Desktop/python/web2py/gluon/dal.py'
p332
sg101
(dp333
S'expression.op'
p334
S'<bound method SQLiteAdapter.EQ of <gluon.dal.SQLiteAdapter object>>'
p335
sS'expression'
p336
S'<gluon.dal.Query object>'
p337
sS'expression.first'
p338
S'<gluon.dal.Field object>'
p339
sS'expression.second'
p340
S"'Secret Agent'"
p341
ssg107
I799
sg108
(dp342
I800
S'            elif not expression.first is None:'
p343
sI801
S'                return expression.op(expression.first)'
p344
sI802
S'            else:'
p345
sI803
S'                return expression.op()'
p346
sI794
S'    def expand(self,expression,field_type=None):'
p347
sI795
S'        if isinstance(expression,Field):'
p348
sI796
S'            return str(expression)'
p349
sI797
S'        elif isinstance(expression, (Expression, Query)):'
p350
sI798
S'            if not expression.second is None:'
p351
sI799
S'                return expression.op(expression.first, expression.second)'
p352
ssg119
S'(self=<gluon.dal.SQLiteAdapter object>, expression=<gluon.dal.Query object>, field_type=None)'
p353
sg121
g310
sa(dp354
g99
S'/home/aakarshit/Desktop/python/web2py/gluon/dal.py'
p355
sg101
(dp356
S'first.type'
p357
S"'reference auth_group'"
p358
sS'self'
p359
S'<gluon.dal.SQLiteAdapter object>'
p360
sS'first'
p361
S'<gluon.dal.Field object>'
p362
sS'second'
p363
S"'Secret Agent'"
p364
sS'self.expand'
p365
S'<bound method SQLiteAdapter.expand of <gluon.dal.SQLiteAdapter object>>'
p366
ssg107
I751
sg108
(dp367
I746
S"        return '(%s LIKE %s)' % (self.expand(first),self.expand(key,'string'))"
p368
sI747
S''
sI748
S'    def EQ(self,first,second=None):'
p369
sI749
S'        if second is None:'
p370
sI750
S"            return '(%s IS NULL)' % self.expand(first)"
p371
sI751
S"        return '(%s = %s)' % (self.expand(first),self.expand(second,first.type))"
p372
sI752
S''
sI753
S'    def NE(self,first,second=None):'
p373
sI754
S'        if second==None:'
p374
sI755
S"            return '(%s IS NOT NULL)' % self.expand(first)"
p375
ssg119
S"(self=<gluon.dal.SQLiteAdapter object>, first=<gluon.dal.Field object>, second='Secret Agent')"
p376
sg121
S'EQ'
p377
sa(dp378
g99
S'/home/aakarshit/Desktop/python/web2py/gluon/dal.py'
p379
sg101
(dp380
S'field_type'
p381
S"'reference auth_group'"
p382
sS'self'
p383
S'<gluon.dal.SQLiteAdapter object>'
p384
sS'expression'
p385
S"'Secret Agent'"
p386
sS'self.represent'
p387
S'<bound method SQLiteAdapter.represent of <gluon.dal.SQLiteAdapter object>>'
p388
ssg107
I805
sg108
(dp389
I800
S'            elif not expression.first is None:'
p390
sI801
S'                return expression.op(expression.first)'
p391
sI802
S'            else:'
p392
sI803
S'                return expression.op()'
p393
sI804
S'        elif field_type:'
p394
sI805
S'            return self.represent(expression,field_type)'
p395
sI806
S'        elif isinstance(expression,(list,tuple)):'
p396
sI807
S"            return ','.join([self.represent(item,field_type) for item in expression])"
p397
sI808
S'        else:'
p398
sI809
S'            return str(expression)'
p399
ssg119
S"(self=<gluon.dal.SQLiteAdapter object>, expression='Secret Agent', field_type='reference auth_group')"
p400
sg121
g310
sa(dp401
g99
S'/home/aakarshit/Desktop/python/web2py/gluon/dal.py'
p402
sg101
(dp403
S'builtinstr'
p404
S"<type 'str'>"
p405
sS'builtinint'
p406
S"<type 'int'>"
p407
sS'obj'
p408
S"'Secret Agent'"
p409
ssg107
I1104
sg108
(dp410
I1099
S"        elif fieldtype.startswith('reference'): # reference"
p411
sI1100
S"            if fieldtype.find('.')>0:"
p412
sI1101
S'                return repr(obj)'
p413
sI1102
S'            elif isinstance(obj, (Row, Reference)):'
p414
sI1103
S"                return str(obj['id'])"
p415
sI1104
S'            return str(int(obj))'
p416
sI1105
S"        elif fieldtype == 'double':"
p417
sI1106
S'            return repr(float(obj))'
p418
sI1107
S'        if isinstance(obj, unicode):'
p419
sI1108
S'            obj = obj.encode(self.db_codec)'
p420
ssg119
S"(self=<gluon.dal.SQLiteAdapter object>, obj='Secret Agent', fieldtype='reference auth_group')"
p421
sg121
S'represent'
p422
sasS'pyver'
p423
S'Python 2.6.5: /usr/bin/python'
p424
sS'session'
p425
(dp426
S'_formkey[no_table_create]'
p427
S"'7e42ddc0-f3e8-40c1-84d8-ae16e0886897'"
p428
sS'string'
p429
S"' '"
p430
sS'flash'
p431
S'None'
p432
sS'auth'
p433
S"<Storage {'expiration': 3600, 'user': <Storage {...11, 2, 7, 18, 21, 2, 141813), 'remember': False}>"
p434
sS'_formkey[files_create]'
p435
S"'708ddfa1-c4b1-41e8-bd9b-c2dcebff0a9d'"
p436
sS'type1'
p437
S"'All'"
p438
sS'_formkey[login]'
p439
S"'c41f8ed2-2dc4-4f60-aee0-fb89ace672bf'"
p440
ssS'etype'
p441
S"<type 'exceptions.ValueError'>"
p442
sS'date'
p443
S'Mon Feb  7 18:21:02 2011'
p444
sS'response'
p445
(dp446
S'status'
p447
S'200'
p448
sg59
S'<cStringIO.StringO object>'
p449
sg76
S"<SimpleCookie: session_id_Music_Library='127.0.0.1-4a95a450-b25c-436d-ba9b-788df6651212'>"
p450
sS'_vars'
p451
S'None'
p452
sS'title'
p453
S"'Music_Library'"
p454
sS'session_file'
p455
S"<open file '/home/aakarshit/Desktop/python/web2p...a95a450-b25c-436d-ba9b-788df6651212', mode 'rb+'>"
p456
sS'flash'
p457
S"''"
p458
sS'_custom_rollback'
p459
S'None'
p460
sS'session_id'
p461
S"'127.0.0.1-4a95a450-b25c-436d-ba9b-788df6651212'"
p462
sS'headers'
p463
S"<Storage {'Expires': 'Mon, 07 Feb 2011 12:51:02 ...he, must-revalidate, post-check=0, pre-check=0'}>"
p464
sS'meta'
p465
S"<Storage {'keywords': 'bla bla bla', 'description': 'describe your app', 'author': 'you'}>"
p466
sS'session_filename'
p467
S"'/home/aakarshit/Desktop/python/web2py/applicatio...ns/127.0.0.1-4a95a450-b25c-436d-ba9b-788df6651212'"
p468
sS'postprocessing'
p469
S'[]'
p470
sS'menu'
p471
S"[(<lazyT 'Index'>, False, <gluon.html.XML object>, []), (<lazyT 'Edit'>, False, <gluon.html.XML object>, [(<lazyT 'Controller'>, False, <gluon.html.XML object>), (<lazyT 'View'>, False, <gluon.html.XML object>), (<lazyT 'Layout'>, False, <gluon.html.XML object>), (<lazyT 'Stylesheet'>, False, <gluon.html.XML object>), (<lazyT 'DB Model'>, False, <gluon.html.XML object>), (<lazyT 'Menu Model'>, False, <gluon.html.XML object>), (<lazyT 'Database'>, False, <gluon.html.XML object>)])]"
p472
sS'_view_environment'
p473
S"{'A': <class 'gluon.html.A'>, 'Auth': <class 'gluon.tools.Auth'>, 'B': <class 'gluon.html.B'>, 'BEAUTIFY': <class 'gluon.html.BEAUTIFY'>, 'BODY': <class 'gluon.html.BODY'>, 'BR': <class 'gluon.html.BR'>, 'CENTER': <class 'gluon.html.CENTER'>, 'CLEANUP': <class 'gluon.validators.CLEANUP'>, 'CODE': <class 'gluon.html.CODE'>, 'CRYPT': <class 'gluon.validators.CRYPT'>, ...}"
p474
sS'subtitle'
p475
S"<lazyT 'customize me!'>"
p476
sS'session_id_name'
p477
S"'session_id_Music_Library'"
p478
sS'_custom_commit'
p479
S'None'
p480
sS'_caller'
p481
S'<function <lambda>>'
p482
sS'files'
p483
S'[<gluon.html.XML object>, <gluon.html.XML object>, <gluon.html.XML object>, <gluon.html.XML object>, <gluon.html.XML object>, <gluon.html.XML object>, <gluon.html.XML object>, <gluon.html.XML object>, <gluon.html.XML object>, <gluon.html.XML object>]'
p484
sS'view'
p485
S"'default/home.html'"
p486
ssS'locals'
p487
(dp488
S'self'
p489
S'<gluon.dal.SQLiteAdapter object>'
p490
sS'r'
S'None'
p491
sS'obj'
p492
S"'Secret Agent'"
p493
sS'fieldtype'
p494
S"'reference auth_group'"
p495
sssS'traceback'
p496
S'Traceback (most recent call last):\n  File "/home/aakarshit/Desktop/python/web2py/gluon/restricted.py", line 188, in restricted\n    exec ccode in environment\n  File "/home/aakarshit/Desktop/python/web2py/applications/Music_Library/controllers/default.py", line 598, in <module>\n  File "/home/aakarshit/Desktop/python/web2py/gluon/globals.py", line 95, in <lambda>\n    self._caller = lambda f: f()\n  File "/home/aakarshit/Desktop/python/web2py/gluon/tools.py", line 2297, in f\n    return action(*a, **b)\n  File "/home/aakarshit/Desktop/python/web2py/applications/Music_Library/controllers/default.py", line 126, in home\n    auth.del_membership(\'Secret Agent\', session.auth.user.id)\n  File "/home/aakarshit/Desktop/python/web2py/gluon/tools.py", line 2490, in del_membership\n    == group_id).delete()\n  File "/home/aakarshit/Desktop/python/web2py/gluon/dal.py", line 4512, in delete\n    return self.db._adapter.delete(tablename,self.query)\n  File "/home/aakarshit/Desktop/python/web2py/gluon/dal.py", line 868, in delete\n    sql = self._delete(tablename,query)\n  File "/home/aakarshit/Desktop/python/web2py/gluon/dal.py", line 862, in _delete\n    sql_w = \' WHERE \' + self.expand(query)\n  File "/home/aakarshit/Desktop/python/web2py/gluon/dal.py", line 799, in expand\n    return expression.op(expression.first, expression.second)\n  File "/home/aakarshit/Desktop/python/web2py/gluon/dal.py", line 721, in AND\n    return \'(%s AND %s)\' % (self.expand(first),self.expand(second))\n  File "/home/aakarshit/Desktop/python/web2py/gluon/dal.py", line 799, in expand\n    return expression.op(expression.first, expression.second)\n  File "/home/aakarshit/Desktop/python/web2py/gluon/dal.py", line 751, in EQ\n    return \'(%s = %s)\' % (self.expand(first),self.expand(second,first.type))\n  File "/home/aakarshit/Desktop/python/web2py/gluon/dal.py", line 805, in expand\n    return self.represent(expression,field_type)\n  File "/home/aakarshit/Desktop/python/web2py/gluon/dal.py", line 1104, in represent\n    return str(int(obj))\nValueError: invalid literal for int() with base 10: \'Secret Agent\'\n'
p497
s.