(dp1
S'output'
p2
S''
sS'layer'
p3
S'/home/aakarshit/Desktop/python/web2py/applications/Music_Library/views/default/update_profile.html'
p4
sS'code'
p5
S'response.write(\'<!DOCTYPE html PUBLIC "-//W3C//DTD XHTML 1.0 Transitional//EN" "http://www.w3.org/TR/xhtml1/DTD/xhtml1-transitional.dtd">\\n<html xmlns="http://www.w3.org/1999/xhtml" xml:lang="\', escape=False)\nresponse.write(T.accepted_language or \'en\')\nresponse.write(\'">\\n<head>\\n<meta http-equiv="Content-Type" content="text/html; charset=iso-8859-1" />\\n<title>\', escape=False)\nresponse.write(response.title or request.application)\nresponse.write(\'</title>\\n<link rel="shortcut icon"\\n      href="\', escape=False)\nresponse.write(URL(request.application,\'static\',\'favicon.ico\'))\nresponse.write(\'" \\n      type="image/vnd.microsoft.icon"/>\\n    \', escape=False)\n#------  require CSS and JS files for this page (read info in base.css) ------\nresponse.write(\'\\n    \', escape=False)\nresponse.files.append(URL(request.application,\'static\',\'music2.css\'))\nresponse.write(\'\\n    \\n    \', escape=False)\nresponse.files.append(URL(request.application,\'static\',\'music_both.css\'))\nresponse.write(\'\\n    \', escape=False)\nresponse.files.append(URL(request.application,\'static\',\'superfish.js\'))\nresponse.write(\'\\n    \', escape=False)\n#------ include web2py specific js code (jquery, calendar, form stuff) ------\nresponse.write(\'\\n    \', escape=False)\nresponse.files.insert(0,URL(r=request,c=\'static\',f=\'jquery.js\'))\nresponse.files.insert(1,URL(r=request,c=\'static\',f=\'calendar.css\'))\nresponse.files.insert(2,URL(r=request,c=\'static\',f=\'calendar.js\'))\nfor _item in response.meta or []:\n    response.write(\'\\n     <meta name="\', escape=False)\n    response.write(_item)\n    response.write(\'" content="\', escape=False)\n    response.write(response.meta[_item])\n    response.write(\'" />\', escape=False)\n    pass\nfor _k,_file in enumerate(response.files or []):\n    if _file in response.files[:_k]:\n        continue\n    elif _file.lower().endswith(\'.css\'):\n        response.write(\'\\n     <link href="\', escape=False)\n        response.write(_file)\n        response.write(\'" rel="stylesheet" type="text/css" />\', escape=False)\n    elif _file.lower().endswith(\'.js\'):\n        response.write(\'\\n     <script src="\', escape=False)\n        response.write(_file)\n        response.write(\'" type="text/javascript"></script>\', escape=False)\n        pass\n    pass\nresponse.write(\'\\n<script type="text/javascript"><!--\\nfunction popup(url) {\\n  newwindow=window.open(url,\\\'name\\\',\\\'height=400,width=600\\\');\\n  if (window.focus) newwindow.focus();\\n  return false;\\n}\\nfunction collapse(id) { jQuery(\\\'#\\\'+id).slideToggle(); }\\nfunction fade(id,value) { if(value>0) jQuery(\\\'#\\\'+id).hide().fadeIn(\\\'slow\\\'); else jQuery(\\\'#\\\'+id).show().fadeOut(\\\'slow\\\'); }\\nfunction ajax(u,s,t) {\\n    query = \\\'\\\';\\n    if (typeof s == "string") {\\n        d = jQuery(s).serialize();\\n        if(d){ query = d; }\\n    } else {\\n        pcs = [];\\n        for(i=0; i<s.length; i++) {\\n            q = jQuery("#"+s[i]).serialize();\\n            if(q){pcs.push(q);}\\n        }\\n        if (pcs.length>0){query = pcs.join("&");}\\n    }\\n    jQuery.ajax({type: "POST", url: u, data: query, success: function(msg) { if(t) { if(t==\\\':eval\\\') eval(msg); else jQuery("#" + t).html(msg); } } }); \\n}\\nString.prototype.reverse = function () { return this.split(\\\'\\\').reverse().join(\\\'\\\');};\\nfunction web2py_ajax_init() {\\n  jQuery(\\\'.hidden\\\').hide();\\n  jQuery(\\\'.error\\\').hide().slideDown(\\\'slow\\\');\\n  jQuery(\\\'.flash\\\').click(function() { jQuery(this).fadeOut(\\\'slow\\\'); return false; });\\n  jQuery(\\\'input.integer\\\').keyup(function(){this.value=this.value.reverse().replace(/[^0-9\\\\-]|\\\\-(?=.)/g,\\\'\\\').reverse();});\\n  jQuery(\\\'input.double\\\').keyup(function(){this.value=this.value.reverse().replace(/[^0-9\\\\-\\\\.]|[\\\\-](?=.)|[\\\\.](?=[0-9]*[\\\\.])/g,\\\'\\\').reverse();});\\n  jQuery("input[type=\\\'checkbox\\\'].delete").each(function(){jQuery(this).click(function() { if(this.checked) if(!confirm("\', escape=False)\nresponse.write(T(\'Sure you want to delete this object?\'))\nresponse.write(\'")) this.checked=false; });});\\n  try {jQuery("input.date").focus( function() {Calendar.setup({\\n     inputField:this.id, ifFormat:"\', escape=False)\nresponse.write(T(\'%Y-%m-%d\'))\nresponse.write(\'", showsTime:false\\n  }); }); } catch(e) {};\\n  try { jQuery("input.datetime").focus( function() {Calendar.setup({\\n     inputField:this.id, ifFormat:"\', escape=False)\nresponse.write(T(\'%Y-%m-%d %H:%M:%S\'))\nresponse.write(\'", showsTime: true,timeFormat: "24"\\n  }); }); } catch(e) {};\\n  try { jQuery("input.time").clockpick({\\n      starthour:0, endhour:23, showminutes:true, military:true\\n  }); } catch(e) {};\\n};\\njQuery(document).ready(function(){\\n   jQuery(\\\'.flash\\\').hide();\\n   if(jQuery(\\\'.flash\\\').html()!=\\\'\\\') jQuery(\\\'.flash\\\').slideDown(\\\'slow\\\');\\n   web2py_ajax_init();});\\n\\nfunction web2py_trap_form(action,target) {\\n   jQuery(\\\'#\\\'+target+\\\' form\\\').each(function(i){\\n      var form=jQuery(this);\\n      if(!form.hasClass(\\\'no_trap\\\'))\\n        form.submit(function(obj){\\n         jQuery(\\\'.flash\\\').hide().html(\\\'\\\');\\n         web2py_ajax_page(\\\'post\\\',action,form.serialize(),target);\\n         return false;\\n      });\\n   });\\n}\\n\\nfunction web2py_ajax_page(method,action,data,target) {\\n  jQuery.ajax({\\\'type\\\':method,\\\'url\\\':action,\\\'data\\\':data,\\n    \\\'beforeSend\\\':function(xhr){\\n      xhr.setRequestHeader(\\\'web2py-component-location\\\',document.location);\\n      xhr.setRequestHeader(\\\'web2py-component-element\\\',target);},\\n    \\\'complete\\\':function(xhr,text){\\n      command=xhr.getResponseHeader(\\\'web2py-component-command\\\');\\n      if(command) eval(command);\\n      flash=xhr.getResponseHeader(\\\'web2py-component-flash\\\');\\n      if(flash) jQuery(\\\'.flash\\\').html(flash).slideDown();\\n      },\\n    \\\'success\\\': function(text) {\\n      jQuery(\\\'#\\\'+target).html(text);\\n      web2py_trap_form(action,target);\\n      web2py_ajax_init();\\n      }\\n    });\\n}\\nfunction web2py_component(action,target) {\\n    jQuery(document).ready(function(){ web2py_ajax_page(\\\'get\\\',action,null,target); });\\n}\\n//--></script>\\n\', escape=False)\nresponse.write(\'\\n</head>\\n<body>\\n\\n<div class="flash">\', escape=False)\nresponse.write(response.flash or \'\')\nresponse.write(\'</div>\\n\\n\\n<div id="main">\\n  <div id="header">\\n    <div id="menu"> <a href="\', escape=False)\nresponse.write(URL(r=request,f=\'user\',args=\'logout\',c=\'default\'))\nresponse.write(\'">LOGOUT </a>\\n     <a href="#">ABOUT US </a>\\n      <a href="\', escape=False)\nresponse.write(URL(r=request,f=\'playlist\',c=\'default\'))\nresponse.write(\'">PLAYLIST </a>\\n       <a href="\', escape=False)\nresponse.write(URL(r=request,f=\'update_profile\',c=\'default\'))\nresponse.write(\'">PROFILE</a>\\n       <a href="\', escape=False)\nresponse.write(URL(r=request,f=\'request_upload\',c=\'default\'))\nresponse.write(\'">REQUEST </a>\\n        <a href="\', escape=False)\nresponse.write(URL(r=request,f=\'home\',c=\'default\'))\nresponse.write(\'">HOME</a> </div>\\n    <div id="header-Bottom">\\n      <div id="logoBlock">\\n        <h1>My Music</h1>\\n        <p>EVERYMUSIC YOU WANT TO LISTEN </p>\\n      </div>\\n     <div id="navBlock">\\n        <h2>\\n        <img src="\', escape=False)\nresponse.write(URL(r=request,f=\'download\',args=session.auth.user.pic))\nresponse.write(\'" width="75px" height="75"/>\\n            \', escape=False)\nresponse.write((session.auth.user.first_name).capitalize())\nresponse.write(\'\\n         </h2>\\n        \\n         </div>\\n\\n    </div>\\n  </div>\\n  <div id="mainCont">\\n    <div id="leftCol">\\n      <div id="welcomeBox">\\n\\n        \', escape=False)\nresponse.write(form)\nresponse.write(\'\\n\\t\', escape=False)\nresponse.write(beautify.vars)\nresponse.write(\'\\n\\n      </div>\\n      <div id="playListTop">\\n        <h3>RECENTLY PLAYED</h3>\\n\\n      </div>\\n      \', escape=False)\nimport time\nresponse.write(\'\\n       <div id="playListBody">\\n        <div class="head">\\n          <p class="left">PLAY</p>\\n          <p class="centr">TRACK</p>\\n          <p class="right">ARTIST</p>\\n          <p class="right">ALBUM</p>\\n          <p class="rightl">TIME</p>\\n        </div>\\n       \', escape=False)\nflag=1\nresponse.write(\'\\n       \', escape=False)\nfor i in byme:\n    response.write(\'\\n        \\n          \', escape=False)\n    if(flag==1):\n        response.write(\'\\n            \', escape=False)\n        p="playListDark"\n        response.write(\'\\n          \', escape=False)\n    else:\n        response.write(\'\\n            \', escape=False)\n        p="playListLight"\n        response.write(\'\\n          \', escape=False)\n        pass\n    response.write(\'\\n             \\n       <div class="\', escape=False)\n    response.write(p)\n    response.write(\'">\\n          <a href="\', escape=False)\n    response.write(URL(r=request,f=\'play\',args=i.id))\n    response.write(\'">\\n          <p class="play"></p> </a>  <!-- give the link to play the file -->\\n          <p class="track">\', escape=False)\n    response.write(i.name[:16])\n    response.write(\'</p>\\n          <p class="artist">\', escape=False)\n    response.write(i.artist[:16])\n    response.write(\'</p>\\n          <p class="artist">\', escape=False)\n    response.write(i.album[:15])\n    response.write(\'</p>\\n          <p class="length">\', escape=False)\n    response.write(time.strftime(\'%M:%S\', time.gmtime(i.length)))\n    response.write(\'</p>\\n          </div>\\n      \', escape=False)\n    flag*=-1\n    response.write(\'\\n      \', escape=False)\n    pass\nresponse.write(\'\\n     \\n   \\n\\n        <div class="playListLight">\\n          <p class="bot">&nbsp;</p>\\n\\n        </div>\\n      </div>\\n      <div id="playListBot">\\n      </div>\\n    </div>\\n    <div id="centrCol">\\n      <div class="banr"><img src="\', escape=False)\nresponse.write(URL(request.application,\'static\',\'music.jpg\'))\nresponse.write(\'" width="275" height="182" border="0" alt="banr"/></div>\\n      <div id="albmBlock">\\n        \', escape=False)\nfor i in recent:\n    response.write(\'\\n        <div id="albmBox">\\n          <div class="topCont">\\n            <h1><a class="left" href="\', escape=False)\n    response.write(URL(r=request,f=\'play\',args=i.id))\n    response.write(\'"><img src="\', escape=False)\n    response.write(URL(request.application,\'static\',i.pic))\n    response.write(\'" width="62" height="54" border="0" alt=""/></a></h1>\\n            <p class="headings">\', escape=False)\n    response.write(i.name[:18])\n    response.write(\' <br /><span>\', escape=False)\n    response.write(i.album[:18])\n    response.write(\'</span><br /><span>\', escape=False)\n    response.write(i.artist[:18])\n    response.write(\'</span></p></div>\\n          <div class="botCont"> <a class="left" href="\', escape=False)\n    response.write(URL(r=request,f=\'play\',args=i.id))\n    response.write(\'">play</a> </div>\\n        </div>\\n        \', escape=False)\n    pass\nresponse.write(\'\\n      </div>\\n    </div>\\n    <div id="rightCol">\\n      <div id="videoBlock">\\n        <div id="videoBlockTop">\\n          <h3>TOP DOWNLOADS</h3>\\n          <p>The latest music, albums, concerts and more<br />\\n          play your favourites</p>\\n\\n        </div>\\n         <div id="videoBlockBody">\\n      \', escape=False)\nfor i in down:\n    response.write(\'\\n          <div class="vidBox">\\n            <div class="leftBox">\\n            <a class="left" href="\', escape=False)\n    response.write(URL(r=request,f=\'play\',args=i.id))\n    response.write(\'">\\n              <p class="bold"><b>\', escape=False)\n    response.write(i.name[:30])\n    response.write(\'</b></p></a>\\n              <p class="light">\', escape=False)\n    response.write(i.album[:20])\n    response.write(\'</p>\\n              <p class="dark">\', escape=False)\n    response.write(i.artist[:20])\n    response.write(\'</p>\\n            </div>\\n            <p class="rightBox"><a class="left" href="\', escape=False)\n    response.write(URL(r=request,f=\'play\',args=i.id))\n    response.write(\'"><img src="\', escape=False)\n    response.write(URL(request.application,\'static\',i.pic))\n    response.write(\'"  width="81" height="38" border="0" alt=""/></a></p> <!-- modify-->\\n          </div>\\n        \\n     \', escape=False)\n    pass\nresponse.write(\'\\n              \\n        </div>\\n      </div>\\n      <div id="videoBlockBot"></div>\\n    </div>\\n  </div>\\n  <div id="footer">\\n<br /><br /><br /><br />\\n   <div class="rights">Copyright \\xc2\\xa9 2010 <a href="#">www.mymusic.com.</a> All Rights Reserved.</div>\\n\\n      <div class="rights">Designed by:Vibhor Goel  and  Sourav Dutta</div>\\n  </div>\\n</div>\\n\\n</body>\\n</html>\\n\', escape=False)'
p6
sS'snapshot'
p7
(dp8
S'exception'
p9
(dp10
S'__hash__'
p11
S"<method-wrapper '__hash__' of exceptions.NameError object>"
p12
sS'__setattr__'
p13
S"<method-wrapper '__setattr__' of exceptions.NameError object>"
p14
sS'__reduce_ex__'
p15
S'<built-in method __reduce_ex__ of exceptions.NameError object>'
p16
sS'__getslice__'
p17
S"<method-wrapper '__getslice__' of exceptions.NameError object>"
p18
sS'__getitem__'
p19
S"<method-wrapper '__getitem__' of exceptions.NameError object>"
p20
sS'__setstate__'
p21
S'<built-in method __setstate__ of exceptions.NameError object>'
p22
sS'__reduce__'
p23
S'<built-in method __reduce__ of exceptions.NameError object>'
p24
sS'__str__'
p25
S"<method-wrapper '__str__' of exceptions.NameError object>"
p26
sS'__format__'
p27
S'<built-in method __format__ of exceptions.NameError object>'
p28
sS'__getattribute__'
p29
S"<method-wrapper '__getattribute__' of exceptions.NameError object>"
p30
sS'__class__'
p31
S"<type 'exceptions.NameError'>"
p32
sS'__unicode__'
p33
S'<built-in method __unicode__ of exceptions.NameError object>'
p34
sS'__delattr__'
p35
S"<method-wrapper '__delattr__' of exceptions.NameError object>"
p36
sS'__subclasshook__'
p37
S'<built-in method __subclasshook__ of type object>'
p38
sS'__repr__'
p39
S"<method-wrapper '__repr__' of exceptions.NameError object>"
p40
sS'args'
p41
S'("name \'beautify\' is not defined",)'
p42
sS'__dict__'
p43
S'{}'
p44
sS'__sizeof__'
p45
S'<built-in method __sizeof__ of exceptions.NameError object>'
p46
sS'__doc__'
p47
S"'Name not found globally.'"
p48
sS'__init__'
p49
S"<method-wrapper '__init__' of exceptions.NameError object>"
p50
sS'__new__'
p51
S'<built-in method __new__ of type object>'
p52
ssS'evalue'
p53
S"name 'beautify' is not defined"
p54
sS'request'
p55
(dp56
S'function'
p57
S"'update_profile'"
p58
sS'body'
p59
S'<cStringIO.StringO object>'
p60
sS'wsgi'
p61
S"<Storage {'start_response': <function <lambda> a...INFO': '/Music_Library/default/update_profile'}}>"
p62
sS'extension'
p63
S"'html'"
p64
sS'vars'
p65
S'<Storage {}>'
p66
sS'cid'
p67
S'None'
p68
sS'url'
p69
S'<gluon.html.XML object>'
p70
sS'raw_extension'
p71
S'None'
p72
sg41
S'[]'
p73
sS'controller'
p74
S"'default'"
p75
sS'cookies'
p76
S"<SimpleCookie: session_id_Music_Library='127.0.0...'127.0.0.1-eb21594d-4b61-4901-a95d-ae467ce03cba'>"
p77
sS'application'
p78
S"'Music_Library'"
p79
sS'ajax'
p80
S'False'
p81
sS'client'
p82
S"'127.0.0.1'"
p83
sS'env'
p84
S"<Storage {'wsgi_multithread': True, 'http_accept..._info': '/Music_Library/default/update_profile'}>"
p85
sS'raw_args'
p86
S'None'
p87
sS'get_vars'
p88
S'<Storage {}>'
p89
sS'folder'
p90
S"'/home/aakarshit/Desktop/python/web2py/applications/Music_Library/'"
p91
sS'now'
p92
S'datetime.datetime(2011, 2, 10, 13, 56, 21, 383062)'
p93
sS'post_vars'
p94
S'<Storage {}>'
p95
ssS'frames'
p96
(lp97
(dp98
S'file'
p99
S'/home/aakarshit/Desktop/python/web2py/gluon/restricted.py'
p100
sS'dump'
p101
(dp102
S'environment'
p103
S"{'A': <class 'gluon.html.A'>, 'Auth': <class 'gluon.tools.Auth'>, 'B': <class 'gluon.html.B'>, 'BEAUTIFY': <class 'gluon.html.BEAUTIFY'>, 'BODY': <class 'gluon.html.BODY'>, 'BR': <class 'gluon.html.BR'>, 'CENTER': <class 'gluon.html.CENTER'>, 'CLEANUP': <class 'gluon.validators.CLEANUP'>, 'CODE': <class 'gluon.html.CODE'>, 'CRYPT': <class 'gluon.validators.CRYPT'>, ...}"
p104
sS'ccode'
p105
S'<code object <module> at 0xa6f60b0, file "/home/...brary/views/default/update_profile.html", line 1>'
p106
ssS'lnum'
p107
I188
sS'lines'
p108
(dp109
I192
S'        # XXX Show exception in Wing IDE if running in debugger'
p110
sI183
S'        if type(code) == types.CodeType:'
p111
sI184
S'            ccode = code'
p112
sI185
S'        else:'
p113
sI186
S'            ccode = compile2(code,layer)'
p114
sI187
S''
sI188
S'        exec ccode in environment'
p115
sI189
S'    except HTTP:'
p116
sI190
S'        raise'
p117
sI191
S'    except Exception:'
p118
ssS'call'
p119
S'(code=\'response.write(\\\'<!DOCTYPE html PUBLIC "-//W3C//D...iv>\\\\n</div>\\\\n\\\\n</body>\\\\n</html>\\\\n\\\', escape=False)\', environment={\'A\': <class \'gluon.html.A\'>, \'Auth\': <class \'gluon.tools.Auth\'>, \'B\': <class \'gluon.html.B\'>, \'BEAUTIFY\': <class \'gluon.html.BEAUTIFY\'>, \'BODY\': <class \'gluon.html.BODY\'>, \'BR\': <class \'gluon.html.BR\'>, \'CENTER\': <class \'gluon.html.CENTER\'>, \'CLEANUP\': <class \'gluon.validators.CLEANUP\'>, \'CODE\': <class \'gluon.html.CODE\'>, \'CRYPT\': <class \'gluon.validators.CRYPT\'>, ...}, layer=\'/home/aakarshit/Desktop/python/web2py/applications/Music_Library/views/default/update_profile.html\')'
p120
sS'func'
p121
S'restricted'
p122
sa(dp123
g99
S'/home/aakarshit/Desktop/python/web2py/applications/Music_Library/views/default/update_profile.html'
p124
sg101
(dp125
S'i'
S'undefined'
p126
sS'byme'
p127
S'<gluon.dal.Rows object>'
p128
ssg107
I67
sg108
(dp129
I64
S'response.write(\'\\n         </h2>\\n        \\n         </div>\\n\\n    </div>\\n  </div>\\n  <div id="mainCont">\\n    <div id="leftCol">\\n      <div id="welcomeBox">\\n\\n        \', escape=False)'
p130
sI65
S'response.write(form)'
p131
sI66
S"response.write('\\n\\t', escape=False)"
p132
sI67
S'response.write(beautify.vars)'
p133
sI68
S'response.write(\'\\n\\n      </div>\\n      <div id="playListTop">\\n        <h3>RECENTLY PLAYED</h3>\\n\\n      </div>\\n      \', escape=False)'
p134
sI69
S'import time'
p135
sI70
S'response.write(\'\\n       <div id="playListBody">\\n        <div class="head">\\n          <p class="left">PLAY</p>\\n          <p class="centr">TRACK</p>\\n          <p class="right">ARTIST</p>\\n          <p class="right">ALBUM</p>\\n          <p class="rightl">TIME</p>\\n        </div>\\n       \', escape=False)'
p136
sI71
S'flag=1'
p137
sI72
S"response.write('\\n       ', escape=False)"
p138
sI73
S'for i in byme:'
p139
sI74
S"    response.write('\\n        \\n          ', escape=False)"
p140
sI75
S'    if(flag==1):'
p141
sI76
S"        response.write('\\n            ', escape=False)"
p142
sI77
S'        p="playListDark"'
p143
sI58
S'response.write(\'">REQUEST </a>\\n        <a href="\', escape=False)'
p144
sI59
S"response.write(URL(r=request,f='home',c='default'))"
p145
sI60
S'response.write(\'">HOME</a> </div>\\n    <div id="header-Bottom">\\n      <div id="logoBlock">\\n        <h1>My Music</h1>\\n        <p>EVERYMUSIC YOU WANT TO LISTEN </p>\\n      </div>\\n     <div id="navBlock">\\n        <h2>\\n        <img src="\', escape=False)'
p146
sI61
S"response.write(URL(r=request,f='download',args=session.auth.user.pic))"
p147
sI62
S'response.write(\'" width="75px" height="75"/>\\n            \', escape=False)'
p148
sI63
S'response.write((session.auth.user.first_name).capitalize())'
p149
ssg119
S'()'
p150
sg121
S'<module>'
p151
sasS'pyver'
p152
S'Python 2.6.5: /usr/bin/python'
p153
sS'session'
p154
(dp155
S'_formkey[no_table_create]'
p156
S"'4fa9cfa7-2f3f-4035-96fb-07e7848530c1'"
p157
sS'string'
p158
S"' '"
p159
sS'_formkey[auth_user/13]'
p160
S"'f308b004659634182ce97c4ac25d10ff'"
p161
sS'flash'
p162
S'None'
p163
sS'auth'
p164
S"<Storage {'expiration': 3600, 'user': <Storage {..., 2, 10, 13, 56, 21, 383062), 'remember': False}>"
p165
sS'type1'
p166
S"'All'"
p167
sS'_formkey[login]'
p168
S"'e4a7dfc9-6e16-4b3d-96b5-42cd5838b78d'"
p169
ssS'etype'
p170
S"<type 'exceptions.NameError'>"
p171
sS'date'
p172
S'Thu Feb 10 13:56:21 2011'
p173
sS'response'
p174
(dp175
S'status'
p176
S'200'
p177
sg59
S'<cStringIO.StringO object>'
p178
sg76
S"<SimpleCookie: session_id_Music_Library='127.0.0.1-f6073a7a-5d4f-4849-b8c9-66821c401173'>"
p179
sS'_vars'
p180
S"{'byme': <gluon.dal.Rows object>, 'down': <gluon.dal.Rows object>, 'form': <gluon.sqlhtml.SQLFORM object>, 'recent': <gluon.dal.Rows object>}"
p181
sS'title'
p182
S"'Music_Library'"
p183
sS'session_file'
p184
S"<open file '/home/aakarshit/Desktop/python/web2p...6073a7a-5d4f-4849-b8c9-66821c401173', mode 'rb+'>"
p185
sS'flash'
p186
S"''"
p187
sS'_custom_rollback'
p188
S'None'
p189
sS'session_id'
p190
S"'127.0.0.1-f6073a7a-5d4f-4849-b8c9-66821c401173'"
p191
sS'headers'
p192
S"<Storage {'Expires': 'Thu, 10 Feb 2011 08:26:21 ...he, must-revalidate, post-check=0, pre-check=0'}>"
p193
sS'meta'
p194
S"<Storage {'keywords': 'bla bla bla', 'description': 'describe your app', 'author': 'you'}>"
p195
sS'session_filename'
p196
S"'/home/aakarshit/Desktop/python/web2py/applicatio...ns/127.0.0.1-f6073a7a-5d4f-4849-b8c9-66821c401173'"
p197
sS'postprocessing'
p198
S'[]'
p199
sS'menu'
p200
S"[(<lazyT 'Index'>, False, <gluon.html.XML object>, []), (<lazyT 'Edit'>, False, <gluon.html.XML object>, [(<lazyT 'Controller'>, False, <gluon.html.XML object>), (<lazyT 'View'>, False, <gluon.html.XML object>), (<lazyT 'Layout'>, False, <gluon.html.XML object>), (<lazyT 'Stylesheet'>, False, <gluon.html.XML object>), (<lazyT 'DB Model'>, False, <gluon.html.XML object>), (<lazyT 'Menu Model'>, False, <gluon.html.XML object>), (<lazyT 'Database'>, False, <gluon.html.XML object>)])]"
p201
sS'_view_environment'
p202
S"{'A': <class 'gluon.html.A'>, 'Auth': <class 'gluon.tools.Auth'>, 'B': <class 'gluon.html.B'>, 'BEAUTIFY': <class 'gluon.html.BEAUTIFY'>, 'BODY': <class 'gluon.html.BODY'>, 'BR': <class 'gluon.html.BR'>, 'CENTER': <class 'gluon.html.CENTER'>, 'CLEANUP': <class 'gluon.validators.CLEANUP'>, 'CODE': <class 'gluon.html.CODE'>, 'CRYPT': <class 'gluon.validators.CRYPT'>, ...}"
p203
sS'subtitle'
p204
S"<lazyT 'customize me!'>"
p205
sS'session_id_name'
p206
S"'session_id_Music_Library'"
p207
sS'_custom_commit'
p208
S'None'
p209
sS'_caller'
p210
S'<function <lambda>>'
p211
sS'files'
p212
S'[<gluon.html.XML object>, <gluon.html.XML object>, <gluon.html.XML object>, <gluon.html.XML object>, <gluon.html.XML object>, <gluon.html.XML object>, <gluon.html.XML object>, <gluon.html.XML object>, <gluon.html.XML object>, <gluon.html.XML object>, <gluon.html.XML object>, <gluon.html.XML object>, <gluon.html.XML object>, <gluon.html.XML object>, <gluon.html.XML object>, <gluon.html.XML object>]'
p213
sS'view'
p214
S"'default/update_profile.html'"
p215
ssS'locals'
p216
(dp217
S'Service'
p218
S"<class 'gluon.tools.Service'>"
p219
sS'OBJECT'
p220
S"<class 'gluon.html.OBJECT'>"
p221
sS'_file'
p222
S'<gluon.html.XML object>'
p223
sS'SQLDB'
p224
S"<class 'gluon.dal.DAL'>"
p225
sg154
S"<Storage {'_formkey[no_table_create]': '4fa9cfa7...2, 10, 13, 56, 21, 383062), 'remember': False}>}>"
p226
sS'LINK'
p227
S"<class 'gluon.html.LINK'>"
p228
sS'BR'
p229
S"<class 'gluon.html.BR'>"
p230
sS'local_import'
p231
S'<function <lambda>>'
p232
sS'OPTGROUP'
p233
S"<class 'gluon.html.OPTGROUP'>"
p234
sS'PRE'
p235
S"<class 'gluon.html.PRE'>"
p236
sS'IS_INT_IN_RANGE'
p237
S"<class 'gluon.validators.IS_INT_IN_RANGE'>"
p238
sS'IS_LOWER'
p239
S"<class 'gluon.validators.IS_LOWER'>"
p240
sS'IS_STRONG'
p241
S"<class 'gluon.validators.IS_STRONG'>"
p242
sS'Recaptcha'
p243
S"<class 'gluon.tools.Recaptcha'>"
p244
sS'cache'
p245
S'<gluon.cache.Cache object>'
p246
sS'IS_IN_DB'
p247
S"<class 'gluon.validators.IS_IN_DB'>"
p248
sS'TAG'
p249
S'<gluon.html.__TAG__ object>'
p250
sS'_k'
p251
S'15'
p252
sS'SQLField'
p253
S"<class 'gluon.dal.Field'>"
p254
sS'mail'
p255
S'<gluon.tools.Mail object>'
p256
sS'BODY'
p257
S"<class 'gluon.html.BODY'>"
p258
sS'IS_DATE_IN_RANGE'
p259
S"<class 'gluon.validators.IS_DATE_IN_RANGE'>"
p260
sS'TH'
p261
S"<class 'gluon.html.TH'>"
p262
sS'URL'
p263
S'<function _URL>'
p264
sS'db'
p265
S"<DAL {'auth_event': <Table {'origin': <gluon.dal..., 'id': <gluon.dal.Field object at 0xaa1e8ec>}>}>"
p266
sS'auth'
p267
S'<gluon.tools.Auth object>'
p268
sS'dat'
p269
S'2011'
p270
sS'P'
S"<class 'gluon.html.P'>"
p271
sS'TFOOT'
p272
S"<class 'gluon.html.TFOOT'>"
p273
sS'plugin_wiki_theme'
p274
S"'ui-darkness'"
p275
sS'XHTML'
p276
S"<class 'gluon.html.XHTML'>"
p277
sS'datetime'
p278
S"<module 'datetime' from '/usr/lib/python2.6/lib-dynload/datetime.so'>"
p279
sS'ON'
p280
S'True'
p281
sS'OL'
p282
S"<class 'gluon.html.OL'>"
p283
sS'TEXTAREA'
p284
S"<class 'gluon.html.TEXTAREA'>"
p285
sS'MENU'
p286
S"<class 'gluon.html.MENU'>"
p287
sS't'
S"<Table {'first_name': <gluon.dal.Field object at...b669d15150d7109e5f7ab36744a5b7_auth_user.table'}>"
p288
sS'IS_IMAGE'
p289
S"<class 'gluon.validators.IS_IMAGE'>"
p290
sS'LOAD'
p291
S'<gluon.compileapp.LoadFactory object>'
p292
sS'CODE'
p293
S"<class 'gluon.html.CODE'>"
p294
sS'HTTP'
p295
S"<class 'gluon.http.HTTP'>"
p296
sS'HR'
p297
S"<class 'gluon.html.HR'>"
p298
sS'IS_DATETIME'
p299
S"<class 'gluon.validators.IS_DATETIME'>"
p300
sS'HEAD'
p301
S"<class 'gluon.html.HEAD'>"
p302
sS'LABEL'
p303
S"<class 'gluon.html.LABEL'>"
p304
sS'META'
p305
S"<class 'gluon.html.META'>"
p306
sS'PluginWikiWidgets'
p307
S'<class __builtin__.PluginWikiWidgets>'
p308
sS'plugins'
p309
S'<gluon.tools.PluginManager object>'
p310
sS'SELECT'
p311
S"<class 'gluon.html.SELECT'>"
p312
sS'CENTER'
p313
S"<class 'gluon.html.CENTER'>"
p314
sS'prettydate'
p315
S'<function prettydate>'
p316
sS'Crud'
p317
S"<class 'gluon.tools.Crud'>"
p318
sS'Auth'
p319
S"<class 'gluon.tools.Auth'>"
p320
sS'IS_EQUAL_TO'
p321
S"<class 'gluon.validators.IS_EQUAL_TO'>"
p322
sS'IS_LIST_OF'
p323
S"<class 'gluon.validators.IS_LIST_OF'>"
p324
sS'SQLFORM'
p325
S"<class 'gluon.sqlhtml.SQLFORM'>"
p326
sS'_item'
p327
S"'author'"
p328
sS'EM'
p329
S"<class 'gluon.html.EM'>"
p330
sS'redirect'
p331
S'<function redirect>'
p332
sS'FIELDSET'
p333
S"<class 'gluon.html.FIELDSET'>"
p334
sS'__builtins__'
p335
S"{'ArithmeticError': <type 'exceptions.ArithmeticError'>, 'AssertionError': <type 'exceptions.AssertionError'>, 'AttributeError': <type 'exceptions.AttributeError'>, 'BaseException': <type 'exceptions.BaseException'>, 'BufferError': <type 'exceptions.BufferError'>, 'BytesWarning': <type 'exceptions.BytesWarning'>, 'DeprecationWarning': <type 'exceptions.DeprecationWarning'>, 'EOFError': <type 'exceptions.EOFError'>, 'Ellipsis': Ellipsis, 'EnvironmentError': <type 'exceptions.EnvironmentError'>, ...}"
p336
sS'embed64'
p337
S'<function embed64>'
p338
sS'INPUT'
p339
S"<class 'gluon.html.INPUT'>"
p340
sS'EMBED'
p341
S"<class 'gluon.html.EMBED'>"
p342
sS'_'
S'<function _>'
p343
sS'PluginWiki'
p344
S'<class __builtin__.PluginWiki>'
p345
sS'H2'
p346
S"<class 'gluon.html.H2'>"
p347
sS'H3'
p348
S"<class 'gluon.html.H3'>"
p349
sS'H1'
p350
S"<class 'gluon.html.H1'>"
p351
sS'H6'
p352
S"<class 'gluon.html.H6'>"
p353
sS'H4'
p354
S"<class 'gluon.html.H4'>"
p355
sS'H5'
p356
S"<class 'gluon.html.H5'>"
p357
sS'UL'
p358
S"<class 'gluon.html.UL'>"
p359
sS'IS_UPPER'
p360
S"<class 'gluon.validators.IS_UPPER'>"
p361
sS'xmlescape'
p362
S'<function xmlescape>'
p363
sS'IS_TIME'
p364
S"<class 'gluon.validators.IS_TIME'>"
p365
sS'OPTION'
p366
S"<class 'gluon.html.OPTION'>"
p367
sS'TITLE'
p368
S"<class 'gluon.html.TITLE'>"
p369
sS'DEFAULT'
p370
S"{'editor': False, 'level': 3, 'migrate': True, 'mode': 'markmin', 'theme': 'ui-darkness'}"
p371
sS'CRYPT'
p372
S"<class 'gluon.validators.CRYPT'>"
p373
sS'IS_EMPTY_OR'
p374
S"<class 'gluon.validators.IS_EMPTY_OR'>"
p375
sS'MARKMIN'
p376
S"<class 'gluon.html.MARKMIN'>"
p377
sS'down'
p378
S'<gluon.dal.Rows object>'
p379
sS'service'
p380
S'<gluon.tools.Service object>'
p381
sS'SCRIPT'
p382
S"<class 'gluon.html.SCRIPT'>"
p383
sS'geocode'
p384
S'<function geocode>'
p385
sS'TABLE'
p386
S"<class 'gluon.html.TABLE'>"
p387
sS'THEAD'
p388
S"<class 'gluon.html.THEAD'>"
p389
sS'IS_IPV4'
p390
S"<class 'gluon.validators.IS_IPV4'>"
p391
sS'IS_LENGTH'
p392
S"<class 'gluon.validators.IS_LENGTH'>"
p393
sS'XML'
p394
S"<class 'gluon.html.XML'>"
p395
sS'B'
S"<class 'gluon.html.B'>"
p396
sS'IMG'
p397
S"<class 'gluon.html.IMG'>"
p398
sS'SQLTABLE'
p399
S"<class 'gluon.sqlhtml.SQLTABLE'>"
p400
sS'IS_MATCH'
p401
S"<class 'gluon.validators.IS_MATCH'>"
p402
sS'IS_ALPHANUMERIC'
p403
S"<class 'gluon.validators.IS_ALPHANUMERIC'>"
p404
sS'_f'
p405
S"'plugin_wiki/multiselect/jquery.multiselect.js'"
p406
sS'SPAN'
p407
S"<class 'gluon.html.SPAN'>"
p408
sS'plugin_rating'
p409
S'<function plugin_rating>'
p410
sS'plugin_wiki_editor'
p411
g81
sS'IS_SLUG'
p412
S"<class 'gluon.validators.IS_SLUG'>"
p413
sS'CLEANUP'
p414
S"<class 'gluon.validators.CLEANUP'>"
p415
sS'today'
p416
S'datetime.date(2011, 2, 10)'
p417
sS'plugin_wiki_migrate'
p418
g281
sS'fetch'
p419
S'<function fetch>'
p420
sS'IS_DATE'
p421
S"<class 'gluon.validators.IS_DATE'>"
p422
sS'IS_EMAIL'
p423
S"<class 'gluon.validators.IS_EMAIL'>"
p424
sS'IS_NOT_EMPTY'
p425
S"<class 'gluon.validators.IS_NOT_EMPTY'>"
p426
sS'IS_FLOAT_IN_RANGE'
p427
S"<class 'gluon.validators.IS_FLOAT_IN_RANGE'>"
p428
sS'BEAUTIFY'
p429
S"<class 'gluon.html.BEAUTIFY'>"
p430
sS'TBODY'
p431
S"<class 'gluon.html.TBODY'>"
p432
sS'Field'
p433
S"<class 'gluon.dal.Field'>"
p434
sS'plugin_wiki'
p435
S'<__builtin__.PluginWiki instance>'
p436
sS'plugin_wiki_level'
p437
S'3'
sg55
S"<Storage {'function': 'update_profile', 'body': ... 13, 56, 21, 383062), 'post_vars': <Storage {}>}>"
p438
sS'Mail'
p439
S"<class 'gluon.tools.Mail'>"
p440
sS'DIV'
p441
S"<class 'gluon.html.DIV'>"
p442
sS'LEGEND'
p443
S"<class 'gluon.html.LEGEND'>"
p444
sS'form'
p445
S'<gluon.sqlhtml.SQLFORM object>'
p446
sS'byme'
p447
S'<gluon.dal.Rows object>'
p448
sS'DAL'
p449
S"<class 'gluon.dal.DAL'>"
p450
sS'TT'
p451
S"<class 'gluon.html.TT'>"
p452
sS'TR'
p453
S"<class 'gluon.html.TR'>"
p454
sS'LI'
p455
S"<class 'gluon.html.LI'>"
p456
sS'IFRAME'
p457
S"<class 'gluon.html.IFRAME'>"
p458
sS'TD'
p459
S"<class 'gluon.html.TD'>"
p460
sS'PluginManager'
p461
S"<class 'gluon.tools.PluginManager'>"
p462
sS'IS_URL'
p463
S"<class 'gluon.validators.IS_URL'>"
p464
sS'A'
S"<class 'gluon.html.A'>"
p465
sS'STYLE'
p466
S"<class 'gluon.html.STYLE'>"
p467
sS'IS_DATETIME_IN_RANGE'
p468
S"<class 'gluon.validators.IS_DATETIME_IN_RANGE'>"
p469
sS'HTML'
p470
S"<class 'gluon.html.HTML'>"
p471
sS'FORM'
p472
S"<class 'gluon.html.FORM'>"
p473
sS'I'
S"<class 'gluon.html.I'>"
p474
sS'crud'
p475
S'<gluon.tools.Crud object>'
p476
sS'IS_NOT_IN_DB'
p477
S"<class 'gluon.validators.IS_NOT_IN_DB'>"
p478
sg174
S"<Storage {'status': 200, 'body': <cStringIO.Stri...object at 0xa7e26ec>], '_custom_rollback': None}>"
p479
sS'recent'
p480
S'<gluon.dal.Rows object>'
p481
sS'IS_NULL_OR'
p482
S"<class 'gluon.validators.IS_EMPTY_OR'>"
p483
sS'plugin_wiki_mode'
p484
S"'markmin'"
p485
sS'm'
g281
sS'IS_EXPR'
p486
S"<class 'gluon.validators.IS_EXPR'>"
p487
sS'T'
S'<gluon.languages.translator object>'
p488
sS'IS_IN_SET'
p489
S"<class 'gluon.validators.IS_IN_SET'>"
p490
sS'IS_UPLOAD_FILENAME'
p491
S"<class 'gluon.validators.IS_UPLOAD_FILENAME'>"
p492
sS'IS_DECIMAL_IN_RANGE'
p493
S"<class 'gluon.validators.IS_DECIMAL_IN_RANGE'>"
p494
sssS'traceback'
p495
S'Traceback (most recent call last):\n  File "/home/aakarshit/Desktop/python/web2py/gluon/restricted.py", line 188, in restricted\n    exec ccode in environment\n  File "/home/aakarshit/Desktop/python/web2py/applications/Music_Library/views/default/update_profile.html", line 67, in <module>\n    {{ for i in byme:}}\nNameError: name \'beautify\' is not defined\n'
p496
s.