(dp1
S'output'
p2
S''
sS'layer'
p3
S'/home/aakarshit/Desktop/python/web2py/applications/Music_Library/controllers/default.py'
p4
sS'code'
p5
S'# -*- coding: utf-8 -*- \n\n#########################################################################\n## This is a samples controller\n## - index is the default action of any application\n## - user is required for authentication and authorization\n## - download is for downloading files uploaded in the db (does streaming)\n## - call exposes all registered services (none by default)\n#########################################################################  \n\n#default homepage redirected to home\nauth.settings.create_user_groups = False\n@auth.requires_login()\ndef index():\n    """\n    example action using the internationalizatioREADMEn operator T and flash\n    rendered by views/default/index.html or views/generic.html\n    """\n    is_admin=0\n    if session.auth.user.admin_priv == True:\n        if auth.has_membership(\'Secret Agent\', session.auth.user.id) == False:\n            auth.add_membership(\'Secret Agent\', session.auth.user.id)            \n            \n    if session.auth.user.admin_priv == False:\n        if auth.has_membership(\'Secret Agent\', session.auth.user.id) == True:\n            db(db.auth_membership.user_id == session.auth.user.id).delete()                       \n                                                     \n    if  auth.has_membership(\'Secret Agent\', session.auth.user.id) == True:\n        is_admin=1\n        redirect(URL(r=request,f=\'admin_home\'))\n            \n    redirect(URL(r=request,f=\'home\'))\n    return dict(message=T(\'Hello World\'))\n\n#function for user login/logout\ndef user():\n        \n    if request.args(0)==\'logout\':\n        ip=0;\n        down=0;\n        for i in db(db.ip_add.ip==str(request.env.remote_addr)).select():\n            ip=i.id\n            down=i.hits+1   \n        if ip:  db(db.ip_add.id==ip).update(hits=down,last=request.now,port=request.env.remote_port)\n        else:  db.ip_add.insert(ip=str(request.env.remote_addr),hits=0,last=request.now,port=request.env.remote_port)\n        session.clear()     #if requestfor logout clear the session\n        redirect(URL(r=request,f=\'user\',args=\'login\'))#redirect to login page\n    \n    """\n    exposes:\n    http://..../[app]/default/user/login \n    http://..../[app]/default/user/logout\n    http://..../[app]/default/user/register\n    http://..../[app]/default/user/profile\n    http://..../[app]/default/user/retrieve_password\n    http://..../[app]/default/user/change_password\n    use @auth.requires_login()\n        @auth.requires_membership(\'group name\')\n        @auth.requires_permission(\'read\',\'table name\',record_id)\n    to decorate functions that need access control\n    """\n    \n    down=db(db.song.id>0).select(orderby=~db.song.nod,limitby=(0,10))         #contains details of top download\n    recent=db(db.song.id>0).select(orderby=~db.song.doup,limitby=(0,4))       #contains details of recently uploaded files\n    return dict(form=auth(),down=down,recent=recent)\n\n#the logout function\ndef logout():\n    session.clear()\n    redirect(URL(r=request,f=\'index\'))\n    return \n\n\n#the page to register\ndef register():\n    session.clear()\n    form=SQLFORM(db.auth_user)\n    down=db(db.song.id>0).select(orderby=~db.song.nod,limitby=(0,10))\n    recent=db(db.song.id>0).select(orderby=~db.song.doup,limitby=(0,4))\n        \n    if form.accepts(request.vars,session):\n            redirect(URL(r=request,f=\'user\',args=\'login\'))#if registeration is sucessful  redirct to homepage\n            \n    return dict(form=form,down=down,recent=recent)\n\n#default function to download the filea in database\n@auth.requires_login()\ndef download():\n     \n    if(request.vars.has_key(\'songid\')):  #if it is called to download the no of download of that song is increased by one\n        rat1=db(db.plugin_rating_master.id>0).select()\n        rat=3.0\n        for i in rat1:\n            rat=i.rating\n        so=int(request.vars[\'songid\'])\n        curr=db(db.song.id==so).select()\n        down=0\n        rat1=3.0\n        for i in curr:\n             down=int(i.nod)+1\n             rat1=i.rating\n        rat=((rat1*(down-1))+rat)/down\n        db(db.song.id==so).update(nod=down,rating=rat)\n        \n    """\n    allows downloading of uploaded files\n    http://..../[app]/default/download/[filename]\n    """\n    return response.download(request,db)\n\n\ndef call():\n    """\n    exposes services. for example:\n    http://..../[app]/default/call/jsonrpc\n    decorate with @services.jsonrpc the functions to expose\n    supports xml, json, xmlrpc, jsonrpc, amfrpc, rss, csv\n    """\n    session.forget()\n    return service()\n\n\n#controller for admin homepage\n\n@auth.requires_membership(\'Secret Agent\')\ndef admin_home():\n    admin=0\n                                                                     \n    if(auth.has_membership(\'adminstration\')):admin=1\n        \n    form = SQLFORM.factory(\n            Field(\'Search\'),\n            Field(\'type\',\'boolean\', requires=IS_IN_SET([\'All\',\'Artist\',\'Album\',\'Titles\']),widget=SQLFORM.widgets.radio.widget,default=\'All\'))\n    g=[]\n     \n    if session.string==None:\n          session.string=" "\n          session.type1="All"\n    string=session.string\n    type1=session.type1\n    pageno=0\n    next=0\n    pre=0\n    no=15\n        \n        \n    if request.vars.has_key(\'pageno\'):\n          pageno=int(request.vars[\'pageno\'])\n          no=pageno*15+15\n    if form.accepts(request.vars, session):\n          session.string=request.vars[\'Search\']\n          session.type1=request.vars[\'type\']\n          redirect(URL(r=request,f=\'home\'))\n    elif form.errors:\n          response.flash = \'form has errors\'\n       \n    g=process_search(string,type1)\n    count=len(g)\n       \n    found=""\n    down=db(db.song.id>0).select(orderby=~db.song.nod,limitby=(0,10))\n    recent=db(db.song.id>0).select(orderby=~db.song.doup,limitby=(0,4))\n    tmp=db(db.song.id>0).select()\n    if(g):\n          found=tmp.find(lambda x: x.id in g)\n    else: response.flash=\'no song found\'\n             \n    if pageno>0:\n          pre=1\n    if no <count:\n          next=1\n    session.string=string\n    session.type1=type1 \n    return dict(admin=admin,form=form,found=found,pageno=pageno,pre=pre,next=next,count=count,down=down,recent=recent)\n\n\n#controller for general homepage\n    \n@auth.requires_login()\ndef home():\n    admin=0\n                                                                     \n    if(auth.has_membership(\'adminstration\')):admin=1\n        \n    form = SQLFORM.factory(\n            Field(\'Search\'),\n            Field(\'type\',\'boolean\', requires=IS_IN_SET([\'All\',\'Artist\',\'Album\',\'Titles\']),widget=SQLFORM.widgets.radio.widget,default=\'All\'))\n    g=[]\n     \n    if session.string==None:\n          session.string=" "\n          session.type1="All"\n    string=session.string\n    type1=session.type1\n    pageno=0\n    next=0\n    pre=0\n    no=15\n        \n        \n    if request.vars.has_key(\'pageno\'):\n          pageno=int(request.vars[\'pageno\'])\n          no=pageno*15+15\n    if form.accepts(request.vars, session):\n          session.string=request.vars[\'Search\']\n          session.type1=request.vars[\'type\']\n          redirect(URL(r=request,f=\'home\'))\n    elif form.errors:\n          response.flash = \'form has errors\'\n       \n    g=process_search(string,type1)\n    count=len(g)\n       \n    found=""\n    down=db(db.song.id>0).select(orderby=~db.song.nod,limitby=(0,10))\n    recent=db(db.song.id>0).select(orderby=~db.song.doup,limitby=(0,4))\n    tmp=db(db.song.id>0).select()\n    if(g):\n          found=tmp.find(lambda x: x.id in g)\n    else: response.flash=\'no song found\'\n             \n    if pageno>0:\n          pre=1\n    if no <count:\n          next=1\n    session.string=string\n    session.type1=type1 \n    return dict(admin=admin,form=form,found=found,pageno=pageno,pre=pre,next=next,count=count,down=down,recent=recent)\n    \n    \nimport os\n@auth.requires_membership(\'adminstration\')\ndef ips():\n    ip12=db(db.ip_add.id>0).select()\n    return dict(ip=ip12)\n    \nimport re\n#function that process the search string and returns the ids of mathched results\n@auth.requires_login()\ndef process_search(s1,p):\n    s=\'\\w*\\s*\\W*\'\n    reg=s\n    for i in s1.split():\n        reg=reg+i+s         #create a regular expression\n    l=[]\n    #search for the regx in database\n    for i in db(db.song.id>0).select(db.song.ALL):\n        tmp=i.id\n       \n        if((p==\'All\' or p==\'Album\')and (re.search(reg,i.album,re.IGNORECASE))):\n           if(i.id not in l):  l+=[i.id]\n        if((p==\'All\' or p==\'Titles\')and (re.search(reg,i.name,re.IGNORECASE))):\n           if(i.id not in l):  l+=[i.id]\n        if((p==\'All\' or p==\'Artist\')and (re.search(reg,i.artist,re.IGNORECASE))):\n           if(i.id not in l):l+=[i.id]   \n         \n    \n    return l\n \nimport os\n\n#controler for upload page only for admin\n@auth.requires_membership(\'Secret Agent\')\ndef upload():\n    up_form=SQLFORM(db.files)\n    bol =\'dskh\' \n \n    if up_form.accepts(request.vars,session):\n            response.flash=(T(\'file uploaded\'))\n            path = os.path.join(request.folder,\'uploads\',up_form.vars[\'file\'])\n            bol=get_info(path,up_form.vars[\'id\'])   #get the metadata of uploaded file\n            if(bol[\'done\']==True):\n                 bol=bol[\'m\']\n                 #insert the metadata in database\n                 db.song.insert(file=up_form.vars[\'id\'],name=bol[\'title\'][0],doup=request.now,lyrics=bol[\'lyrics\'],length=bol[\'length\'],btr=bol[\'bit_rate\'], artist=bol[\'artist\'][0], album=bol[\'album\'][0], year=int(bol[\'date\']),genere=bol[\'genere\'][0],user_id=session.auth.user.id,pic=bol[\'img\'])\n                         \n            else:db(db.file.id==up_form.vars[\'id\']).delete()#if there is error in extracting metadata delete the file\n    elif up_form.errors:\n           response.flash=(T(\'error occured\'))\n    \n    down=db(db.song.id>0).select(orderby=~db.song.nod,limitby=(0,10)) #contains details of recently  uploadded files\n    recent=db(db.song.id>0).select(orderby=~db.song.doup,limitby=(0,4)) #contains details of recently uploaded files\n    byme=db(db.song.user_id==session.auth.user.id).select(orderby=~db.song.doup,limitby=(0,15)) #contains details of top songs uploaded by user\n    return dict(form=up_form,down=down,recent=recent,byme=byme)    \n\n\n#controller  for mymusic page\n@auth.requires_login()\ndef mymusic():\n        down=db(db.song.id>0).select(orderby=~db.song.nod,limitby=(0,10))#contains details of recently  uploadded files\n        recent=db(db.song.id>0).select(orderby=~db.song.doup,limitby=(0,4)) #contains details of recently uploaded files\n        \n        pageno=0\n        next=0\n        pre=0\n        no=15\n        n=15\n        if request.vars.has_key(\'pageno\'):\n            pageno=int(request.vars[\'pageno\'])\n            no=pageno*15+15                             #get the current page no\n        count=db(db.song.user_id==session.auth.user.id).count() #get the total no of entries\n         \n        if pageno > 0:\n            pre=1\n        if no < count:\n            next=1\n        else :\n            no-=15\n            n=count-no \n        byme=db(db.song.user_id==session.auth.user.id).select(orderby=~db.song.doup,limitby=(pageno*15,n))#contains details of top songs uploaded by user\n        return dict(pageno=pageno,pre=pre,next=next,down=down,recent=recent,byme=byme)\n        \n\n#controller for requesting songs to be added only for genral users and not admin\n@auth.requires_login()\ndef request_upload(): \n    \n    form = SQLFORM.factory(\n            Field(\'Song Details\', \'text\'))\n    return dict(form = form)\t\n        \nimport os\n\n#controller forhandle playlist page\n@auth.requires_login()\ndef playlist():    \n        pageno=0\n        next=0\n        pre=0\n        no=11\n        n=11\n        if request.vars.has_key(\'pageno\'):\n            pageno=int(request.vars[\'pageno\'])      #get the current page no\n            if pageno < 0 : redirect(URL(r=request,f=\'user\',c=\'default\',args=\'logout\'))\n            no=pageno*11+11\n        \n        byme=db(db.playlist.user==session.auth.user.id).select()#contains details of top songs uploaded by user\n        \n        iid=0  \n        \n          \n        li=[]\n        for i in byme:\n            li+=[i.id]\n        if len(li)>0: iid=li[0]\n        \n                \n        if request.vars.has_key(\'id\'):\n            iid=int(request.vars[\'id\'])    \n            \n        if len(li)>0 and iid not in li: redirect(URL(r=request,f=\'user\',c=\'default\',args=\'logout\'))#if passed vars is not in range callfor logout\n        \n        count=db(db.playlist.user==session.auth.user.id).count()#get the total no of entries\n        \n        if pageno*11 > count: redirect(URL(r=request,f=\'user\',c=\'default\',args=\'logout\'))#if passed vars is not in range callfor logout\n        elif pageno*11==count and pageno >0:redirect(URL(r=request,f=\'playlist\',c=\'default\',vars=dict(pageno=pageno-1)))#redirect to previouspage\n      \n        song=db((db.list.list==iid)&(db.list.song==db.song.id)&(db.song.file==db.files.id)).select()  #order by orders\n        pname=""\n        for i in db(db.playlist.id==iid).select():\n             pname=i.name\n        #create the playlist .xfps file\n        str1=\'\xef\xbb\xbf<?xml version="1.0" encoding="UTF-8" ?> \\n<playlist version="0" xmlns="http://xspf.org/ns/0/">\\n <title>\'\n        str2=\'\'\' \n         </title>\n         <trackList>\'\'\'\n        str3=\'\'\'<track>\n          <location>\'\'\'\n\n        str4=\'\'\'</location>\n            <image>\'\'\'\n        str5=\'\'\'</image>\n        <annotation>\'\'\'\n        str6=\'\'\'</annotation>\n            </track>\'\'\'\n        str7=\'\'\'</trackList>\n            </playlist>\'\'\'\n        if len(li)>0 :\n            plist=file(os.path.join(request.folder,\'static\',(\'tmp\'+\'.xspf\')),\'w\')\n            plist.write(str1)\n            plist.write(pname)\n            plist.write(str2)\n        \n            for i in song:\n               plist.write(str3)\n               plist.write(str(URL(r=request,f=\'download\',c=\'default\',args=i.files.file)))\n               plist.write(str4)\n               plist.write(str(URL(request.application,\'static\',i.song.pic)))\n               plist.write(str5)\n               plist.write(i.song.name)\n               plist.write(str6)\n               #response.flash=song\n            plist.write(str7)        \n            plist.close()\n            #the playlist is created\n            \n        if pageno>0:\n            pre=1\n        if no <count:\n            next=1\n        else :\n            no-=11\n            n=count-no\n            \n        form = SQLFORM.factory(Field(\'new\',\'string\',label="NEW PLAYLIST"))#form to insert new playlist\n            \n        if form.accepts(request.vars,session):\n            response.flash=\'New Playlist created\'\n            db.playlist.insert(user=session.auth.user.id,name=form.vars[\'new\'])\n            redirect(URL(r=request,f=\'playlist\',vars=dict(pageno=pageno)))\n        elif form.errors:\n                response.flash=\'error\'\n        \n                    \n        byme=db(db.playlist.user==session.auth.user.id).select(limitby=(pageno*11,n))#contains details of top songs uploaded by user\n        scr1=" " \n        if len(li)>0:   \n            scr1=URL(request.application,\'static\',\'tmp\'+\'.xspf\')\n        scr2=URL(request.application,\'static\',os.path.join(\'ply\',\'xspf_player.swf\'))\n            \n        ply=XML(\'<object type="application/x-shockwave-flash" width="650" height="600" data="%(scr2)s?playlist_url=%(scr1)s">  <param name="movie"  value="%(scr2)s?autoplay=1&autoload=1&playlist_url=%(scr1)s"/> <embed  allowfullscreen="false" allowscriptaccess="always" src="%(scr2)s?playlist_url=%(scr1)s pluginspage=\xe2\x80\x9dhttp://www.macromedia.com/go/getflashplayer\xe2\x80\x9d" ></embed> </object>\'%dict(scr1=scr1,scr2=scr2))#the XML lines for player\n       \n        \n            \n        return dict(form=form,ply=ply,pageno=pageno,pre=pre,next=next,byme=byme,pname=pname)\n    \n#the controller for play song page\n@auth.requires_login()\ndef play():\n    \n        so=int(request.args(0))\n        som1=db(db.song.id==so).select()\n        if (db(db.song.id==so).count())<=0:\n            redirect(URL(r=request,f=\'user\',args=\'logout\'))#call for logout if vars not in range\n        \n        soid=0\n        for i in som1:\n          soid=i.file\n          sopic=i.pic\n          sonam=i.name\n        som=db(db.files.id==soid).select()\n        filn=""\n        for i in som:\n            filn=i.file\n        #create form for comment\n        form = SQLFORM.factory(Field(\'comment\',\'text\'))\n        \n        db.list.song.default=so\n        db.list.song.readable=False\n        db.list.favourite.readable=False\n        db.list.listen.readable=False\n        db.list.orders.readable=False\n        db.list.song.writable=False\n        db.list.favourite.writable=False\n        db.list.listen.writable=False\n        db.list.orders.writable=False\n        \n        myplaylist=[]\n        idform=[]\n        for i in db((db.playlist.user==session.auth.user.id)).select():\n              myplaylist+=[i.name]\n              idform+=[i.id]\n        \n   \n        db.list.list.requires=IS_IN_SET(idform,myplaylist)\n        form1=SQLFORM(db.list)\n        response.flash=sonam\n        if form1.accepts(request.vars,session):\n            response.flash="SONG ADDED TO PLAYLIST"\n        if form.accepts(request.vars,session):\n            response.flash=\'comment added\'\n            db.comments.insert(user_id=session.auth.user.id,song_id=so,comment=form.vars[\'comment\'],date=request.now)\n            \n             \n        sopic=URL(request.application,\'static\',sopic)#the album art pic\n        pic=XML(\'<img src=%(sopic)s align="center"  width="240px" height="240"\\>\'% dict(sopic=sopic)) \n        src=URL(r=request,c=\'default\',f=\'download\',args=filn)\n        width=\'400\'\n        height=45\n        """\n        ## Embeds a media file (such as flash video or an mp3 file)\n        - ``src`` is the src of the video\n        - ``width`` is the width of the image\n        - ``height`` is the height of the image\n        """\n        #the music player\n        ply=XML(\'<embed allowfullscreen="false" allowscriptaccess="always" flashvars="height=%(height)s&width=%(width)s&file=%(src)s" height="%(height)spx" src="%(url)s" width="%(width)spx"></embed>\'%dict(url=URL(request.application,\'static\',\'plugin_wiki/mediaplayer.swf\'),src=src,width=width,height=height))\n        \n        #select the comment for the song\n        comm=db((db.comments.song_id==so) &( db.comments.user_id==db.auth_user.id)).select(db.auth_user.first_name,db.auth_user.last_name,db.comments.comment,db.comments.date,db.auth_user.pic,db.auth_user.id,db.comments.id,orderby=~db.comments.date,limitby=(0,10))\n        down=db(db.song.id>0).select(orderby=~db.song.nod,limitby=(0,10))\n        recent=db(db.song.id>0).select(orderby=~db.song.doup,limitby=(0,4))\n        byme=db(db.song.user_id==session.auth.user.id).select(orderby=~db.song.doup,limitby=(0,15))\n        \n        return dict(ply=ply,down=down,recent=recent,byme=byme,comm=comm,form=form,pic=pic,som=som1,ffff=filn,form1=form1)   \n\n#contrller for the deleteplaylist function\n@auth.requires_login()        \ndef deletplaylist():\n    playl=int(request.vars[\'id\'])\n    pag=int(request.vars[\'pageno\'])\n    db(db.list.list==playl).delete()\n    db(db.playlist.id==playl).delete()\n    redirect(URL(r=request, f=\'playlist\',vars=dict(pageno=pag)))\n    return\n\n#contrller for the deletecomment function\n@auth.requires_login()\ndef deletcomment():\n    song=int(request.vars[\'song\'])\n    com=int(request.vars[\'com\'])\n    db(db.comments.id==com).delete()\n    redirect(URL(r=request, f=\'play\',args=song))\n    return        \n\n\n@auth.requires_membership(\'adminstration\')\ndef admins():\n    names=[]\n    ids=[]\n    for i in db(db.auth_user.id>0).select():\n              ids+=[i.id]\n              names+=[i.first_name+\' \'+i.last_name]\n    for i in db((db.auth_user.id==db.auth_membership.user_id)).select():\n           k=ids.index(i.auth_user.id)\n           del(ids[k])\n           del(names[k])\n      #  response.flash="Deleting Options"\n           form2 = SQLFORM.factory(\n            Field(\'user\',requires=IS_IN_SET(ids,names),label=\'Delete User\'))\n    son=db(db.song.id>0).select()\n    sonn=[]\n    sonid=[]\n    for i in son:\n        sonid+=[i.id]\n        sonn+=[i.name+\' artist: \'+i.artist]   \n    if request.vars.has_key(\'user\'):\n       #if form2.accepts(request.vars,session):\n       if not form2.errors:\n        db(db.comments.user_id==request.vars[\'user\']).delete()\n        for i in db(db.playlist.user==request.vars[\'user\']).select():\n            db(db.list.list==i.id).delete()\n        db(db.playlist.user==request.vars[\'user\']).delete()\n        db(db.auth_user.id==request.vars[\'user\']).delete()\n        redirect(URL(r=request,f=\'admins\'))\n       elif form2.errors: pass  \n    \n    form1 = SQLFORM.factory(\n            Field(\'song\',requires=IS_IN_SET(sonid,sonn),label=\'Delete Song\'))\n    \n    if form1.accepts(request.vars, session):\n           # response.flash="qefw"\n            \n        db(db.comments.song_id==request.vars[\'song\']).delete()\n        \n        art=db(db.song.id==request.vars[\'song\']).select()\n        artpic=""\n        for i in art:\n            artpic=os.path.join(request.folder,\'static\',i.pic)\n        try:\n            os.remove(artpic)\n        except OSError:\n             response.flash="error"\n        for i in db((db.song.id==request.vars[\'song\'])&(db.files.id==db.song.file)).select():\n            db(db.files.id==i.files.id).delete()\n        db(db.song.id==request.vars[\'song\']).delete()\n        redirect(URL(r=request,f=\'admins\'))\n        \n    down=db(db.song.id>0).select(orderby=~db.song.nod,limitby=(0,10))\n    recent=db(db.song.id>0).select(orderby=~db.song.doup,limitby=(0,4))\n    return dict(down=down,recent=recent,form=form2,form1=form1)\n\n\n\n\n\nfrom mutagen.mp3 import MP3\nfrom mutagen.easyid3 import EasyID3\nimport mutagen.id3\nfrom mutagen.id3 import ID3, TIT2, TALB, TPE1, TPE2, COMM, USLT, TCOM, TCON\n\nfrom mutagen.id3 import ID3NoHeaderError\nfrom mutagen.mp3 import HeaderNotFoundError\n\n#function to extract metadata from MP3 file\n@auth.requires_login()\ndef get_info(f,filen): \n    filen=str(filen)\n   \n    m={}\n    try:\n        audio = MP3(f)\n    except HeaderNotFoundError:\n        response.flash="Error Reading file"\n        ##remove the entry\n        return dict(m=m,done=False) \n    try:\n       tagg = ID3(f)\n    except ID3NoHeaderError:\n        response.flash="Error Reading file"\n        ##remove the entry\n        return dict(m=m,done=False)\n   \n    ext=\'.img\'\n    flag=1\n    imgfilename=""\n    #lookfor albumart\n    for frame in tagg.getall("APIC"):\n                flag=2\n                if (frame.mime == "image/jpeg") or (frame.mime == "image/jpg"): ext = ".jpg"\n                if frame.mime == "image/png": ext = ".png"\n                if frame.mime == "image/gif": ext = ".gif"\n\n                filen=filen+ext\n                #storethe album art\n                imgfilename=os.path.join(request.folder,\'static\',filen)\n             \n                myfile = file(imgfilename, \'w\')\n                myfile.write(frame.data)\n                myfile.close()\n    if(flag==1):\n                filen=filen+\'.jpg\'\n                imgfilename=str(URL(request.folder,\'static\',\'albumart.jpg\'))\n                ff=file(imgfilename,\'r\')\n                imgfilename=os.path.join(request.folder,\'static\',filen)\n                myfile = file(imgfilename, \'w\')\n                myfile.write(ff.read())\n                myfile.close()\n                ff.close()\n    m={}            \n    m = dict(MP3(f, ID3=EasyID3))\n    l=tagg.getall(u"USLT")\n    m[\'lyrics\']=""\n    if(not(m.has_key(\'artist\'))):m[\'artist\']=[\'unknown\']\n    if(not(m.has_key(\'album\'))):m[\'album\']=[\'unknown\']\n    if(not(m.has_key(\'title\'))):m[\'title\']=[\'unknown\']\n    if(not(m.has_key(\'genere\'))):m[\'genere\']=[\'unknown\']  \n    if(not(m.has_key(\'date\'))):m[u\'date\']=[\'2014\']\n    m[\'date\']=m[\'date\'][0][:4]\n    for i in tagg.getall(u"USLT"):\n         m[\'lyrics\']=i.text\n         \n    m[\'length\']=audio.info.length\n    m[\'bit_rate\']=audio.info.bitrate/(1000)\n    m[\'img\']=filen\n    \n    return dict(m=m,done=True)\n\nresponse._vars=response._caller(request_upload)\n'
p6
sS'snapshot'
p7
(dp8
S'exception'
p9
(dp10
S'__getslice__'
p11
S"<method-wrapper '__getslice__' of exceptions.SyntaxError object>"
p12
sS'text'
p13
S'None'
p14
sS'__str__'
p15
S"<method-wrapper '__str__' of exceptions.SyntaxError object>"
p16
sS'__reduce__'
p17
S'<built-in method __reduce__ of exceptions.SyntaxError object>'
p18
sS'__dict__'
p19
S'{}'
p20
sS'__sizeof__'
p21
S'<built-in method __sizeof__ of exceptions.SyntaxError object>'
p22
sS'__init__'
p23
S"<method-wrapper '__init__' of exceptions.SyntaxError object>"
p24
sS'__setattr__'
p25
S"<method-wrapper '__setattr__' of exceptions.SyntaxError object>"
p26
sS'__reduce_ex__'
p27
S'<built-in method __reduce_ex__ of exceptions.SyntaxError object>'
p28
sS'__new__'
p29
S'<built-in method __new__ of type object>'
p30
sS'__format__'
p31
S'<built-in method __format__ of exceptions.SyntaxError object>'
p32
sS'__class__'
p33
S"<type 'exceptions.SyntaxError'>"
p34
sS'filename'
p35
S'None'
p36
sS'lineno'
p37
S'None'
p38
sS'msg'
p39
S"'only [0-9a-zA-Z_] allowed in table and field names, received Song Details'"
p40
sS'__doc__'
p41
S"'Invalid syntax.'"
p42
sS'__getitem__'
p43
S"<method-wrapper '__getitem__' of exceptions.SyntaxError object>"
p44
sS'__setstate__'
p45
S'<built-in method __setstate__ of exceptions.SyntaxError object>'
p46
sS'__getattribute__'
p47
S"<method-wrapper '__getattribute__' of exceptions.SyntaxError object>"
p48
sS'print_file_and_line'
p49
S'None'
p50
sS'args'
p51
S"('only [0-9a-zA-Z_] allowed in table and field names, received Song Details',)"
p52
sS'__subclasshook__'
p53
S'<built-in method __subclasshook__ of type object>'
p54
sS'offset'
p55
S'None'
p56
sS'__unicode__'
p57
S'<built-in method __unicode__ of exceptions.SyntaxError object>'
p58
sS'__delattr__'
p59
S"<method-wrapper '__delattr__' of exceptions.SyntaxError object>"
p60
sS'__repr__'
p61
S"<method-wrapper '__repr__' of exceptions.SyntaxError object>"
p62
sS'__hash__'
p63
S"<method-wrapper '__hash__' of exceptions.SyntaxError object>"
p64
ssS'evalue'
p65
S'only [0-9a-zA-Z_] allowed in table and field names, received Song Details'
p66
sS'request'
p67
(dp68
S'function'
p69
S"'request_upload'"
p70
sS'body'
p71
S'<cStringIO.StringO object>'
p72
sS'wsgi'
p73
S"<Storage {'start_response': <function <lambda> a...INFO': '/Music_Library/default/request_upload'}}>"
p74
sS'extension'
p75
S"'html'"
p76
sS'vars'
p77
S'<Storage {}>'
p78
sS'cid'
p79
S'None'
p80
sS'url'
p81
S'<gluon.html.XML object>'
p82
sS'raw_extension'
p83
S'None'
p84
sg51
S'[]'
p85
sS'controller'
p86
S"'default'"
p87
sS'cookies'
p88
S"<SimpleCookie: session_id_AOE='127.0.0.1-abb8245...'127.0.0.1-6e7e6187-9c4d-4786-8889-a54ef8a0a5e1'>"
p89
sS'application'
p90
S"'Music_Library'"
p91
sS'ajax'
p92
S'False'
p93
sS'client'
p94
S"'127.0.0.1'"
p95
sS'env'
p96
S"<Storage {'wsgi_multithread': True, 'http_accept..._info': '/Music_Library/default/request_upload'}>"
p97
sS'raw_args'
p98
S'None'
p99
sS'get_vars'
p100
S'<Storage {}>'
p101
sS'folder'
p102
S"'/home/aakarshit/Desktop/python/web2py/applications/Music_Library/'"
p103
sS'now'
p104
S'datetime.datetime(2011, 2, 7, 22, 9, 57, 789468)'
p105
sS'post_vars'
p106
S'<Storage {}>'
p107
ssS'frames'
p108
(lp109
(dp110
S'file'
p111
S'/home/aakarshit/Desktop/python/web2py/gluon/restricted.py'
p112
sS'dump'
p113
(dp114
S'environment'
p115
S"{'A': <class 'gluon.html.A'>, 'Auth': <class 'gluon.tools.Auth'>, 'B': <class 'gluon.html.B'>, 'BEAUTIFY': <class 'gluon.html.BEAUTIFY'>, 'BODY': <class 'gluon.html.BODY'>, 'BR': <class 'gluon.html.BR'>, 'CENTER': <class 'gluon.html.CENTER'>, 'CLEANUP': <class 'gluon.validators.CLEANUP'>, 'CODE': <class 'gluon.html.CODE'>, 'COMM': <class 'mutagen.id3.COMM'>, ...}"
p116
sS'ccode'
p117
S'<code object <module> at 0x9e26140, file "/home/...s/Music_Library/controllers/default.py", line 12>'
p118
ssS'lnum'
p119
I188
sS'lines'
p120
(dp121
I192
S'        # XXX Show exception in Wing IDE if running in debugger'
p122
sI183
S'        if type(code) == types.CodeType:'
p123
sI184
S'            ccode = code'
p124
sI185
S'        else:'
p125
sI186
S'            ccode = compile2(code,layer)'
p126
sI187
S''
sI188
S'        exec ccode in environment'
p127
sI189
S'    except HTTP:'
p128
sI190
S'        raise'
p129
sI191
S'    except Exception:'
p130
ssS'call'
p131
S"(code='# -*- coding: utf-8 -*- \\n\\n######################...\\nresponse._vars=response._caller(request_upload)\\n', environment={'A': <class 'gluon.html.A'>, 'Auth': <class 'gluon.tools.Auth'>, 'B': <class 'gluon.html.B'>, 'BEAUTIFY': <class 'gluon.html.BEAUTIFY'>, 'BODY': <class 'gluon.html.BODY'>, 'BR': <class 'gluon.html.BR'>, 'CENTER': <class 'gluon.html.CENTER'>, 'CLEANUP': <class 'gluon.validators.CLEANUP'>, 'CODE': <class 'gluon.html.CODE'>, 'COMM': <class 'mutagen.id3.COMM'>, ...}, layer='/home/aakarshit/Desktop/python/web2py/applications/Music_Library/controllers/default.py')"
p132
sS'func'
p133
S'restricted'
p134
sa(dp135
g111
S'/home/aakarshit/Desktop/python/web2py/applications/Music_Library/controllers/default.py'
p136
sg113
(dp137
sg119
I649
sg120
(dp138
I640
S'    for i in tagg.getall(u"USLT"):'
p139
sI641
S"         m['lyrics']=i.text"
p140
sI642
S''
sI643
S"    m['length']=audio.info.length"
p141
sI644
S"    m['bit_rate']=audio.info.bitrate/(1000)"
p142
sI645
S"    m['img']=filen"
p143
sI646
S''
sI647
S'    return dict(m=m,done=True)'
p144
sI638
S"    if(not(m.has_key('date'))):m[u'date']=['2014']"
p145
sI639
S"    m['date']=m['date'][0][:4]"
p146
ssg131
S'()'
p147
sg133
S'<module>'
p148
sa(dp149
g111
S'/home/aakarshit/Desktop/python/web2py/gluon/globals.py'
p150
sg113
(dp151
S'self'
p152
S'undefined'
p153
sS'f'
S'<function request_upload>'
p154
ssg119
I95
sg120
(dp155
I96
S'        self._view_environment = None'
p156
sI97
S'        self._custom_commit = None'
p157
sI98
S'        self._custom_rollback = None'
p158
sI99
S''
sI90
S"        self.flash = ''           # used by the default view layout"
p159
sI91
S'        self.meta = Storage()     # used by web2py_ajax.html'
p160
sI92
S'        self.menu = []            # used by the default view layout'
p161
sI93
S'        self.files = []           # used by web2py_ajax.html'
p162
sI94
S'        self._vars = None'
p163
sI95
S'        self._caller = lambda f: f()'
p164
ssg131
S'(f=<function request_upload>)'
p165
sg133
S'<lambda>'
p166
sa(dp167
g111
S'/home/aakarshit/Desktop/python/web2py/gluon/tools.py'
p168
sg113
(dp169
S'action'
p170
S'<function request_upload>'
p171
sS'a'
S'()'
p172
sS'b'
g20
ssg119
I2297
sg120
(dp173
I2292
S'                    self.environment.session.flash = self.environment.response.flash'
p174
sI2293
S'                    return call_or_redirect(self.settings.on_failed_authentication,'
p175
sI2294
S'                                            self.settings.login_url + \\'
p176
sI2295
S"                                                '?_next='+urllib.quote(next)"
p177
sI2296
S'                                            )'
p178
sI2297
S'                return action(*a, **b)'
p179
sI2298
S'            f.__doc__ = action.__doc__'
p180
sI2299
S'            f.__name__ = action.__name__'
p181
sI2300
S'            f.__dict__.update(action.__dict__)'
p182
sI2301
S'            return f'
p183
ssg131
S'(*a=(), **b={})'
p184
sg133
S'f'
sa(dp185
g111
S'/home/aakarshit/Desktop/python/web2py/applications/Music_Library/controllers/default.py'
p186
sg113
(dp187
S'global Field'
p188
S"<class 'gluon.dal.Field'>"
p189
ssg119
I319
sg120
(dp190
I320
S'    return dict(form = form)'
p191
sI321
S''
sI322
S'import os'
p192
sI323
S''
sI314
S'#controller for requesting songs to be added only for genral users and not admin'
p193
sI315
S'@auth.requires_login()'
p194
sI316
S'def request_upload():'
p195
sI317
S''
sI318
S'    form = SQLFORM.factory('
p196
sI319
S"            Field('Song Details', 'text'))"
p197
ssg131
S'()'
p198
sg133
S'request_upload'
p199
sa(dp200
g111
S'/home/aakarshit/Desktop/python/web2py/gluon/dal.py'
p201
sg113
(dp202
S'fieldname'
p203
S"'Song Details'"
p204
sS'self'
p205
S'<gluon.dal.Field object>'
p206
sS'self.name'
p207
g153
sS'global cleanup'
p208
S'<function cleanup>'
p209
ssg119
I4193
sg120
(dp210
I4192
S'        self.second = None'
p211
sI4193
S'        self.name = fieldname = cleanup(fieldname)'
p212
sI4194
S"        if hasattr(Table,fieldname) or fieldname[0] == '_':"
p213
sI4195
S"            raise SyntaxError, 'Field: invalid field name: %s' % fieldname"
p214
sI4196
S'        if isinstance(type, Table):'
p215
sI4197
S"            type = 'reference ' + type._tablename"
p216
sI4188
S'        ):'
p217
sI4189
S'        self.db = None'
p218
sI4190
S'        self.op = None'
p219
sI4191
S'        self.first = None'
p220
ssg131
S"(self=<gluon.dal.Field object>, fieldname='Song Details', type='text', length=None, default=<function <lambda>>, required=False, requires=<function <lambda>>, ondelete='CASCADE', notnull=False, unique=False, uploadfield=True, widget=None, label=None, comment=None, writable=True, readable=True, update=None, authorize=None, autodelete=False, represent=None, uploadfolder=None, uploadseparate=False, compute=None, custom_store=None)"
p221
sg133
g23
sa(dp222
g111
S'/home/aakarshit/Desktop/python/web2py/gluon/dal.py'
p223
sg113
(dp224
S'text'
p225
S"'Song Details'"
p226
ssg119
I2947
sg120
(dp227
I2944
S"    if re.compile('[^0-9a-zA-Z_]').findall(text):"
p228
sI2945
S'        raise SyntaxError, \\'
p229
sI2946
S"            'only [0-9a-zA-Z_] allowed in table and field names, received %s' \\"
p230
sI2947
S'            % text'
p231
sI2948
S'    return text'
p232
sI2949
S''
sI2950
S''
sI2951
S'try:'
p233
sI2942
S'    """'
p234
sI2943
S''
ssg131
S"(text='Song Details')"
p235
sg133
S'cleanup'
p236
sasS'pyver'
p237
S'Python 2.6.5: /usr/bin/python'
p238
sS'session'
p239
(dp240
S'_formkey[no_table_create]'
p241
S"'82431962-458e-4d76-aa04-c5a6a291f005'"
p242
sS'string'
p243
S"'at'"
p244
sS'flash'
p245
S'None'
p246
sS'auth'
p247
S"<Storage {'expiration': 3600, 'user': <Storage {...11, 2, 7, 22, 9, 57, 789468), 'remember': False}>"
p248
sS'type1'
p249
S"'All'"
p250
sS'_formkey[login]'
p251
S"'10d991a3-a9b6-4ecd-988b-f9f5029d8f14'"
p252
ssS'etype'
p253
S"<type 'exceptions.SyntaxError'>"
p254
sS'date'
p255
S'Mon Feb  7 22:09:57 2011'
p256
sS'response'
p257
(dp258
S'status'
p259
S'200'
p260
sg71
S'<cStringIO.StringO object>'
p261
sg88
S"<SimpleCookie: session_id_Music_Library='127.0.0.1-4a95a450-b25c-436d-ba9b-788df6651212'>"
p262
sS'_vars'
p263
S'None'
p264
sS'title'
p265
S"'Music_Library'"
p266
sS'session_file'
p267
S"<open file '/home/aakarshit/Desktop/python/web2p...a95a450-b25c-436d-ba9b-788df6651212', mode 'rb+'>"
p268
sS'flash'
p269
S"''"
p270
sS'_custom_rollback'
p271
S'None'
p272
sS'session_id'
p273
S"'127.0.0.1-4a95a450-b25c-436d-ba9b-788df6651212'"
p274
sS'headers'
p275
S"<Storage {'Expires': 'Mon, 07 Feb 2011 16:39:57 ...he, must-revalidate, post-check=0, pre-check=0'}>"
p276
sS'meta'
p277
S"<Storage {'keywords': 'bla bla bla', 'description': 'describe your app', 'author': 'you'}>"
p278
sS'session_filename'
p279
S"'/home/aakarshit/Desktop/python/web2py/applicatio...ns/127.0.0.1-4a95a450-b25c-436d-ba9b-788df6651212'"
p280
sS'postprocessing'
p281
S'[]'
p282
sS'menu'
p283
S"[(<lazyT 'Index'>, False, <gluon.html.XML object>, []), (<lazyT 'Edit'>, False, <gluon.html.XML object>, [(<lazyT 'Controller'>, False, <gluon.html.XML object>), (<lazyT 'View'>, False, <gluon.html.XML object>), (<lazyT 'Layout'>, False, <gluon.html.XML object>), (<lazyT 'Stylesheet'>, False, <gluon.html.XML object>), (<lazyT 'DB Model'>, False, <gluon.html.XML object>), (<lazyT 'Menu Model'>, False, <gluon.html.XML object>), (<lazyT 'Database'>, False, <gluon.html.XML object>)])]"
p284
sS'_view_environment'
p285
S"{'A': <class 'gluon.html.A'>, 'Auth': <class 'gluon.tools.Auth'>, 'B': <class 'gluon.html.B'>, 'BEAUTIFY': <class 'gluon.html.BEAUTIFY'>, 'BODY': <class 'gluon.html.BODY'>, 'BR': <class 'gluon.html.BR'>, 'CENTER': <class 'gluon.html.CENTER'>, 'CLEANUP': <class 'gluon.validators.CLEANUP'>, 'CODE': <class 'gluon.html.CODE'>, 'CRYPT': <class 'gluon.validators.CRYPT'>, ...}"
p286
sS'subtitle'
p287
S"<lazyT 'customize me!'>"
p288
sS'session_id_name'
p289
S"'session_id_Music_Library'"
p290
sS'_custom_commit'
p291
S'None'
p292
sS'_caller'
p293
S'<function <lambda>>'
p294
sS'files'
p295
S'[<gluon.html.XML object>, <gluon.html.XML object>, <gluon.html.XML object>, <gluon.html.XML object>, <gluon.html.XML object>, <gluon.html.XML object>, <gluon.html.XML object>, <gluon.html.XML object>, <gluon.html.XML object>, <gluon.html.XML object>]'
p296
sS'view'
p297
S"'default/request_upload.html'"
p298
ssS'locals'
p299
(dp300
g13
S"'Song Details'"
p301
sssS'traceback'
p302
S'Traceback (most recent call last):\n  File "/home/aakarshit/Desktop/python/web2py/gluon/restricted.py", line 188, in restricted\n    exec ccode in environment\n  File "/home/aakarshit/Desktop/python/web2py/applications/Music_Library/controllers/default.py", line 649, in <module>\n  File "/home/aakarshit/Desktop/python/web2py/gluon/globals.py", line 95, in <lambda>\n    self._caller = lambda f: f()\n  File "/home/aakarshit/Desktop/python/web2py/gluon/tools.py", line 2297, in f\n    return action(*a, **b)\n  File "/home/aakarshit/Desktop/python/web2py/applications/Music_Library/controllers/default.py", line 319, in request_upload\n    Field(\'Song Details\', \'text\'))\n  File "/home/aakarshit/Desktop/python/web2py/gluon/dal.py", line 4193, in __init__\n    self.name = fieldname = cleanup(fieldname)\n  File "/home/aakarshit/Desktop/python/web2py/gluon/dal.py", line 2947, in cleanup\n    % text\nSyntaxError: only [0-9a-zA-Z_] allowed in table and field names, received Song Details\n'
p303
s.