(dp1
S'output'
p2
S''
sS'layer'
p3
S'/home/aakarshit/Desktop/python/web2py/applications/Music_Library/views/default/mymusic.html'
p4
sS'code'
p5
S'response.write(\'<!DOCTYPE html PUBLIC "-//W3C//DTD XHTML 1.0 Transitional//EN" "http://www.w3.org/TR/xhtml1/DTD/xhtml1-transitional.dtd">\\n<html xmlns="http://www.w3.org/1999/xhtml" xml:lang="\', escape=False)\nresponse.write(T.accepted_language or \'en\')\nresponse.write(\'">\\n<head>\\n<meta http-equiv="Content-Type" content="text/html; charset=iso-8859-1" />\\n<title>\', escape=False)\nresponse.write(response.title or request.application)\nresponse.write(\'</title>\\n<link rel="shortcut icon"\\n      href="\', escape=False)\nresponse.write(URL(request.application,\'static\',\'favicon.ico\'))\nresponse.write(\'" \\n      type="image/vnd.microsoft.icon"/>\\n    \', escape=False)\n#------  require CSS and JS files for this page (read info in base.css) ------\nresponse.write(\'\\n    \', escape=False)\nresponse.files.append(URL(request.application,\'static\',\'music2.css\'))\nresponse.write(\'\\n    \\n    \', escape=False)\nresponse.files.append(URL(request.application,\'static\',\'music_both.css\'))\nresponse.write(\'\\n    \', escape=False)\nresponse.files.append(URL(request.application,\'static\',\'superfish.js\'))\nresponse.write(\'\\n    \', escape=False)\n#------ include web2py specific js code (jquery, calendar, form stuff) ------\nresponse.write(\'\\n    \', escape=False)\nresponse.files.insert(0,URL(r=request,c=\'static\',f=\'jquery.js\'))\nresponse.files.insert(1,URL(r=request,c=\'static\',f=\'calendar.css\'))\nresponse.files.insert(2,URL(r=request,c=\'static\',f=\'calendar.js\'))\nfor _item in response.meta or []:\n    response.write(\'\\n     <meta name="\', escape=False)\n    response.write(_item)\n    response.write(\'" content="\', escape=False)\n    response.write(response.meta[_item])\n    response.write(\'" />\', escape=False)\n    pass\nfor _k,_file in enumerate(response.files or []):\n    if _file in response.files[:_k]:\n        continue\n    elif _file.lower().endswith(\'.css\'):\n        response.write(\'\\n     <link href="\', escape=False)\n        response.write(_file)\n        response.write(\'" rel="stylesheet" type="text/css" />\', escape=False)\n    elif _file.lower().endswith(\'.js\'):\n        response.write(\'\\n     <script src="\', escape=False)\n        response.write(_file)\n        response.write(\'" type="text/javascript"></script>\', escape=False)\n        pass\n    pass\nresponse.write(\'\\n<script type="text/javascript"><!--\\nfunction popup(url) {\\n  newwindow=window.open(url,\\\'name\\\',\\\'height=400,width=600\\\');\\n  if (window.focus) newwindow.focus();\\n  return false;\\n}\\nfunction collapse(id) { jQuery(\\\'#\\\'+id).slideToggle(); }\\nfunction fade(id,value) { if(value>0) jQuery(\\\'#\\\'+id).hide().fadeIn(\\\'slow\\\'); else jQuery(\\\'#\\\'+id).show().fadeOut(\\\'slow\\\'); }\\nfunction ajax(u,s,t) {\\n    query = \\\'\\\';\\n    if (typeof s == "string") {\\n        d = jQuery(s).serialize();\\n        if(d){ query = d; }\\n    } else {\\n        pcs = [];\\n        for(i=0; i<s.length; i++) {\\n            q = jQuery("#"+s[i]).serialize();\\n            if(q){pcs.push(q);}\\n        }\\n        if (pcs.length>0){query = pcs.join("&");}\\n    }\\n    jQuery.ajax({type: "POST", url: u, data: query, success: function(msg) { if(t) { if(t==\\\':eval\\\') eval(msg); else jQuery("#" + t).html(msg); } } }); \\n}\\nString.prototype.reverse = function () { return this.split(\\\'\\\').reverse().join(\\\'\\\');};\\nfunction web2py_ajax_init() {\\n  jQuery(\\\'.hidden\\\').hide();\\n  jQuery(\\\'.error\\\').hide().slideDown(\\\'slow\\\');\\n  jQuery(\\\'.flash\\\').click(function() { jQuery(this).fadeOut(\\\'slow\\\'); return false; });\\n  jQuery(\\\'input.integer\\\').keyup(function(){this.value=this.value.reverse().replace(/[^0-9\\\\-]|\\\\-(?=.)/g,\\\'\\\').reverse();});\\n  jQuery(\\\'input.double\\\').keyup(function(){this.value=this.value.reverse().replace(/[^0-9\\\\-\\\\.]|[\\\\-](?=.)|[\\\\.](?=[0-9]*[\\\\.])/g,\\\'\\\').reverse();});\\n  jQuery("input[type=\\\'checkbox\\\'].delete").each(function(){jQuery(this).click(function() { if(this.checked) if(!confirm("\', escape=False)\nresponse.write(T(\'Sure you want to delete this object?\'))\nresponse.write(\'")) this.checked=false; });});\\n  try {jQuery("input.date").focus( function() {Calendar.setup({\\n     inputField:this.id, ifFormat:"\', escape=False)\nresponse.write(T(\'%Y-%m-%d\'))\nresponse.write(\'", showsTime:false\\n  }); }); } catch(e) {};\\n  try { jQuery("input.datetime").focus( function() {Calendar.setup({\\n     inputField:this.id, ifFormat:"\', escape=False)\nresponse.write(T(\'%Y-%m-%d %H:%M:%S\'))\nresponse.write(\'", showsTime: true,timeFormat: "24"\\n  }); }); } catch(e) {};\\n  try { jQuery("input.time").clockpick({\\n      starthour:0, endhour:23, showminutes:true, military:true\\n  }); } catch(e) {};\\n};\\njQuery(document).ready(function(){\\n   jQuery(\\\'.flash\\\').hide();\\n   if(jQuery(\\\'.flash\\\').html()!=\\\'\\\') jQuery(\\\'.flash\\\').slideDown(\\\'slow\\\');\\n   web2py_ajax_init();});\\n\\nfunction web2py_trap_form(action,target) {\\n   jQuery(\\\'#\\\'+target+\\\' form\\\').each(function(i){\\n      var form=jQuery(this);\\n      if(!form.hasClass(\\\'no_trap\\\'))\\n        form.submit(function(obj){\\n         jQuery(\\\'.flash\\\').hide().html(\\\'\\\');\\n         web2py_ajax_page(\\\'post\\\',action,form.serialize(),target);\\n         return false;\\n      });\\n   });\\n}\\n\\nfunction web2py_ajax_page(method,action,data,target) {\\n  jQuery.ajax({\\\'type\\\':method,\\\'url\\\':action,\\\'data\\\':data,\\n    \\\'beforeSend\\\':function(xhr){\\n      xhr.setRequestHeader(\\\'web2py-component-location\\\',document.location);\\n      xhr.setRequestHeader(\\\'web2py-component-element\\\',target);},\\n    \\\'complete\\\':function(xhr,text){\\n      command=xhr.getResponseHeader(\\\'web2py-component-command\\\');\\n      if(command) eval(command);\\n      flash=xhr.getResponseHeader(\\\'web2py-component-flash\\\');\\n      if(flash) jQuery(\\\'.flash\\\').html(flash).slideDown();\\n      },\\n    \\\'success\\\': function(text) {\\n      jQuery(\\\'#\\\'+target).html(text);\\n      web2py_trap_form(action,target);\\n      web2py_ajax_init();\\n      }\\n    });\\n}\\nfunction web2py_component(action,target) {\\n    jQuery(document).ready(function(){ web2py_ajax_page(\\\'get\\\',action,null,target); });\\n}\\n//--></script>\\n\', escape=False)\nresponse.write(\'\\n</head>\\n<body>\\n\\n<div class="flash">\', escape=False)\nresponse.write(response.flash or \'\')\nresponse.write(\'</div>\\n\\n\\n<div id="main">\\n  <div id="header">\\n   <div id="menu"> <a href="\', escape=False)\nresponse.write(URL(r=request,f=\'user\',args=\'logout\',c=\'default\'))\nresponse.write(\'">LOGOUT </a>\\n     <a href="#">ABOUT US </a>\\n      <a href="\', escape=False)\nresponse.write(URL(r=request,f=\'playlist\',c=\'default\'))\nresponse.write(\'">PLAYLIST </a>\\n       <a href="\', escape=False)\nresponse.write(URL(r=request,f=\'mymusic\',c=\'default\'))\nresponse.write(\'">MY SONGS</a>\\n       <a href="\', escape=False)\nresponse.write(URL(r=request,f=upload,c=\'default\'))\nresponse.write(\'">UPLOAD </a>\\n\\n        <a href="\', escape=False)\nresponse.write(URL(r=request,f=\'home\',c=\'default\'))\nresponse.write(\'">HOME</a> </div>\\n    <div id="header-Bottom">\\n      <div id="logoBlock">\\n        <h1>My Music</h1>\\n        <p>EVERYMUSIC YOU WANT TO LISTEN </p>\\n      </div>\\n      <div id="navBlock">\\n        \\n        <h2>\\n        <img src="\', escape=False)\nresponse.write(URL(r=request,f=\'download\',args=session.auth.user.pic))\nresponse.write(\'"  width="75px" height="75"/>\\n            \', escape=False)\nresponse.write((session.auth.user.first_name).capitalize())\nresponse.write(\'\\n         </h2>\\n         </div>\\n\\n    </div>\\n  </div>\\n  <div id="mainCont">\\n    <div id="leftCol">\\n      <div id="welcomeBox">\\n\\n        \\n        \\n      </div>\\n      <div id="playListTop">\\n        <h3>MY SONGS</h3>\\n\\n      </div>\\n      \', escape=False)\nimport time\nresponse.write(\'\\n       <div id="playListBody">\\n        <div class="head">\\n          <p class="left">PLAY</p>\\n          <p class="centr">TRACK</p>\\n          <p class="right">ARTIST</p>\\n          <p class="right">ALBUM</p>\\n          <p class="rightl">TIME</p>\\n        </div>\\n       \', escape=False)\nflag=1\nresponse.write(\'\\n       \', escape=False)\nfor i in byme:\n    response.write(\'\\n        \\n          \', escape=False)\n    if(flag==1):\n        response.write(\'\\n            \', escape=False)\n        p="playListDark"\n        response.write(\'\\n          \', escape=False)\n    else:\n        response.write(\'\\n            \', escape=False)\n        p="playListLight"\n        response.write(\'\\n          \', escape=False)\n        pass\n    response.write(\'\\n             \\n       <div class="\', escape=False)\n    response.write(p)\n    response.write(\'">\\n          <a href="\', escape=False)\n    response.write(URL(r=request,f=\'play\',args=i.id))\n    response.write(\'">\\n          <p class="play"></p></a>   <!-- give the link to play the file -->\\n          <p class="track">\', escape=False)\n    response.write(i.name[:16])\n    response.write(\'</p>\\n          <p class="artist">\', escape=False)\n    response.write(i.artist[:16])\n    response.write(\'</p>\\n          <p class="artist">\', escape=False)\n    response.write(i.album[:15])\n    response.write(\'</p>\\n          <p class="length">\', escape=False)\n    response.write(time.strftime(\'%M:%S\', time.gmtime(i.length)))\n    response.write(\'</p>\\n          </div>\\n      \', escape=False)\n    flag*=-1\n    response.write(\'\\n      \', escape=False)\n    pass\nresponse.write(\'\\n     \\n   \\n\\n        <div class="playListLight">\\n          \\n          <p class="bot">&nbsp;</p>\\n\\n        </div>\\n      </div>\\n      <div id="playListBot">\\n      \', escape=False)\nif pre==1:\n    response.write(\'\\n               \\t<h1> \', escape=False)\n    response.write(A(\'PREVIOUS\',_href=URL(r=request,f=\'mymusic\',c=\'default\',vars= dict(pageno=pageno-1))))\n    response.write(\' </h1>\\n       \', escape=False)\n    pass\nresponse.write(\'\\n       \', escape=False)\nif next==1:\n    response.write(\'\\n               \\t<h2>\', escape=False)\n    response.write(A(\'NEXT\',_href=URL(r=request,f=\'mymusic\',c=\'default\',vars= dict(pageno=pageno + 1))))\n    response.write(\'</h2>\\n      \', escape=False)\n    pass\nresponse.write(\'\\n      </div>\\n    </div>\\n    <div id="centrCol">\\n      <div class="banr"><img src="\', escape=False)\nresponse.write(URL(request.application,\'static\',\'music.jpg\'))\nresponse.write(\'" width="275" height="182" border="0" alt="banr"/></div>\\n      <div id="albmBlock">\\n        \', escape=False)\nfor i in recent:\n    response.write(\'\\n        <div id="albmBox">\\n          <div class="topCont">\\n           <h1><a class="left" href="\', escape=False)\n    response.write(URL(r=request,f=\'play\',args=i.id))\n    response.write(\'"><img src="\', escape=False)\n    response.write(URL(request.application,\'static\',i.pic))\n    response.write(\'" width="62" height="54" border="0" alt=""/></a></h1>\\n            <p class="headings">\', escape=False)\n    response.write(i.name[:18])\n    response.write(\' <br /><span>\', escape=False)\n    response.write(i.album[:18])\n    response.write(\'</span><br /><span>\', escape=False)\n    response.write(i.artist[:18])\n    response.write(\'</span></p></div>\\n          <div class="botCont"> <a class="left" href="\', escape=False)\n    response.write(URL(r=request,f=\'play\',args=i.id))\n    response.write(\'">play</a> </div>\\n        </div>\\n        \', escape=False)\n    pass\nresponse.write(\'\\n      </div>\\n    </div>\\n    <div id="rightCol">\\n      <div id="videoBlock">\\n        <div id="videoBlockTop">\\n          <h3>TOP DOWNLOADS</h3>\\n          <p>The latest music, albums, concerts and more<br />\\n          play your favourites</p>\\n\\n        </div>\\n         <div id="videoBlockBody">\\n      \', escape=False)\nfor i in down:\n    response.write(\'\\n          <div class="vidBox">\\n            <div class="leftBox">\\n            <a class="left" href="\', escape=False)\n    response.write(URL(r=request,f=\'play\',args=i.id))\n    response.write(\'">\\n              <p class="bold"><b>\', escape=False)\n    response.write(i.name[:30])\n    response.write(\'</b></p></a>\\n              <p class="light">\', escape=False)\n    response.write(i.album[:20])\n    response.write(\'</p>\\n              <p class="dark">\', escape=False)\n    response.write(i.artist[:20])\n    response.write(\'</p>\\n            </div>\\n            <p class="rightBox"><a class="left" href="\', escape=False)\n    response.write(URL(r=request,f=\'play\',args=i.id))\n    response.write(\'"><img src="\', escape=False)\n    response.write(URL(request.application,\'static\',i.pic))\n    response.write(\'"  width="81" height="38" border="0" alt=""/></a></p> <!-- modify-->\\n          </div>\\n        \\n     \', escape=False)\n    pass\nresponse.write(\'\\n              \\n        </div>\\n      </div>\\n      <div id="videoBlockBot"></div>\\n    </div>\\n  </div>\\n  <div id="footer">\\n<br /><br /><br /><br />\\n   <div class="rights">Copyright \\xc2\\xa9 2010 <a href="#">www.mymusic.com.</a> All Rights Reserved.</div>\\n\\n      <div class="rights">Designed by:Vibhor Goel  and  Sourav Dutta </div>\\n  </div>\\n</div>\\n\\n</body>\\n</html>\\n\', escape=False)'
p6
sS'snapshot'
p7
(dp8
S'exception'
p9
(dp10
S'__hash__'
p11
S"<method-wrapper '__hash__' of exceptions.NameError object>"
p12
sS'__setattr__'
p13
S"<method-wrapper '__setattr__' of exceptions.NameError object>"
p14
sS'__reduce_ex__'
p15
S'<built-in method __reduce_ex__ of exceptions.NameError object>'
p16
sS'__getslice__'
p17
S"<method-wrapper '__getslice__' of exceptions.NameError object>"
p18
sS'__getitem__'
p19
S"<method-wrapper '__getitem__' of exceptions.NameError object>"
p20
sS'__setstate__'
p21
S'<built-in method __setstate__ of exceptions.NameError object>'
p22
sS'__reduce__'
p23
S'<built-in method __reduce__ of exceptions.NameError object>'
p24
sS'__str__'
p25
S"<method-wrapper '__str__' of exceptions.NameError object>"
p26
sS'__format__'
p27
S'<built-in method __format__ of exceptions.NameError object>'
p28
sS'__getattribute__'
p29
S"<method-wrapper '__getattribute__' of exceptions.NameError object>"
p30
sS'__class__'
p31
S"<type 'exceptions.NameError'>"
p32
sS'__unicode__'
p33
S'<built-in method __unicode__ of exceptions.NameError object>'
p34
sS'__delattr__'
p35
S"<method-wrapper '__delattr__' of exceptions.NameError object>"
p36
sS'__subclasshook__'
p37
S'<built-in method __subclasshook__ of type object>'
p38
sS'__repr__'
p39
S"<method-wrapper '__repr__' of exceptions.NameError object>"
p40
sS'args'
p41
S'("name \'upload\' is not defined",)'
p42
sS'__dict__'
p43
S'{}'
p44
sS'__sizeof__'
p45
S'<built-in method __sizeof__ of exceptions.NameError object>'
p46
sS'__doc__'
p47
S"'Name not found globally.'"
p48
sS'__init__'
p49
S"<method-wrapper '__init__' of exceptions.NameError object>"
p50
sS'__new__'
p51
S'<built-in method __new__ of type object>'
p52
ssS'evalue'
p53
S"name 'upload' is not defined"
p54
sS'request'
p55
(dp56
S'function'
p57
S"'mymusic'"
p58
sS'body'
p59
S'<cStringIO.StringO object>'
p60
sS'wsgi'
p61
S"<Storage {'start_response': <function <lambda> a... 'PATH_INFO': '/Music_Library/default/mymusic'}}>"
p62
sS'extension'
p63
S"'html'"
p64
sS'vars'
p65
S'<Storage {}>'
p66
sS'cid'
p67
S'None'
p68
sS'url'
p69
S'<gluon.html.XML object>'
p70
sS'raw_extension'
p71
S'None'
p72
sg41
S'[]'
p73
sS'controller'
p74
S"'default'"
p75
sS'cookies'
p76
S"<SimpleCookie: session_id_Music_Library='127.0.0...'127.0.0.1-eb21594d-4b61-4901-a95d-ae467ce03cba'>"
p77
sS'application'
p78
S"'Music_Library'"
p79
sS'ajax'
p80
S'False'
p81
sS'client'
p82
S"'127.0.0.1'"
p83
sS'env'
p84
S"<Storage {'wsgi_multithread': True, 'http_accept..., 'path_info': '/Music_Library/default/mymusic'}>"
p85
sS'raw_args'
p86
S'None'
p87
sS'get_vars'
p88
S'<Storage {}>'
p89
sS'folder'
p90
S"'/home/aakarshit/Desktop/python/web2py/applications/Music_Library/'"
p91
sS'now'
p92
S'datetime.datetime(2011, 2, 10, 14, 19, 10, 33739)'
p93
sS'post_vars'
p94
S'<Storage {}>'
p95
ssS'frames'
p96
(lp97
(dp98
S'file'
p99
S'/home/aakarshit/Desktop/python/web2py/gluon/restricted.py'
p100
sS'dump'
p101
(dp102
S'environment'
p103
S"{'A': <class 'gluon.html.A'>, 'Auth': <class 'gluon.tools.Auth'>, 'B': <class 'gluon.html.B'>, 'BEAUTIFY': <class 'gluon.html.BEAUTIFY'>, 'BODY': <class 'gluon.html.BODY'>, 'BR': <class 'gluon.html.BR'>, 'CENTER': <class 'gluon.html.CENTER'>, 'CLEANUP': <class 'gluon.validators.CLEANUP'>, 'CODE': <class 'gluon.html.CODE'>, 'CRYPT': <class 'gluon.validators.CRYPT'>, ...}"
p104
sS'ccode'
p105
S'<code object <module> at 0xad75a40, file "/home/...usic_Library/views/default/mymusic.html", line 1>'
p106
ssS'lnum'
p107
I188
sS'lines'
p108
(dp109
I192
S'        # XXX Show exception in Wing IDE if running in debugger'
p110
sI183
S'        if type(code) == types.CodeType:'
p111
sI184
S'            ccode = code'
p112
sI185
S'        else:'
p113
sI186
S'            ccode = compile2(code,layer)'
p114
sI187
S''
sI188
S'        exec ccode in environment'
p115
sI189
S'    except HTTP:'
p116
sI190
S'        raise'
p117
sI191
S'    except Exception:'
p118
ssS'call'
p119
S'(code=\'response.write(\\\'<!DOCTYPE html PUBLIC "-//W3C//D...iv>\\\\n</div>\\\\n\\\\n</body>\\\\n</html>\\\\n\\\', escape=False)\', environment={\'A\': <class \'gluon.html.A\'>, \'Auth\': <class \'gluon.tools.Auth\'>, \'B\': <class \'gluon.html.B\'>, \'BEAUTIFY\': <class \'gluon.html.BEAUTIFY\'>, \'BODY\': <class \'gluon.html.BODY\'>, \'BR\': <class \'gluon.html.BR\'>, \'CENTER\': <class \'gluon.html.CENTER\'>, \'CLEANUP\': <class \'gluon.validators.CLEANUP\'>, \'CODE\': <class \'gluon.html.CODE\'>, \'CRYPT\': <class \'gluon.validators.CRYPT\'>, ...}, layer=\'/home/aakarshit/Desktop/python/web2py/applications/Music_Library/views/default/mymusic.html\')'
p120
sS'func'
p121
S'restricted'
p122
sa(dp123
g99
S'/home/aakarshit/Desktop/python/web2py/applications/Music_Library/views/default/mymusic.html'
p124
sg101
(dp125
S'time'
p126
S'undefined'
p127
ssg107
I57
sg108
(dp128
I64
S'response.write(\'\\n         </h2>\\n         </div>\\n\\n    </div>\\n  </div>\\n  <div id="mainCont">\\n    <div id="leftCol">\\n      <div id="welcomeBox">\\n\\n        \\n        \\n      </div>\\n      <div id="playListTop">\\n        <h3>MY SONGS</h3>\\n\\n      </div>\\n      \', escape=False)'
p129
sI65
S'import time'
p130
sI66
S'response.write(\'\\n       <div id="playListBody">\\n        <div class="head">\\n          <p class="left">PLAY</p>\\n          <p class="centr">TRACK</p>\\n          <p class="right">ARTIST</p>\\n          <p class="right">ALBUM</p>\\n          <p class="rightl">TIME</p>\\n        </div>\\n       \', escape=False)'
p131
sI67
S'flag=1'
p132
sI48
S'response.write(\'\\n</head>\\n<body>\\n\\n<div class="flash">\', escape=False)'
p133
sI49
S"response.write(response.flash or '')"
p134
sI50
S'response.write(\'</div>\\n\\n\\n<div id="main">\\n  <div id="header">\\n   <div id="menu"> <a href="\', escape=False)'
p135
sI51
S"response.write(URL(r=request,f='user',args='logout',c='default'))"
p136
sI52
S'response.write(\'">LOGOUT </a>\\n     <a href="#">ABOUT US </a>\\n      <a href="\', escape=False)'
p137
sI53
S"response.write(URL(r=request,f='playlist',c='default'))"
p138
sI54
S'response.write(\'">PLAYLIST </a>\\n       <a href="\', escape=False)'
p139
sI55
S"response.write(URL(r=request,f='mymusic',c='default'))"
p140
sI56
S'response.write(\'">MY SONGS</a>\\n       <a href="\', escape=False)'
p141
sI57
S"response.write(URL(r=request,f=upload,c='default'))"
p142
sI58
S'response.write(\'">UPLOAD </a>\\n\\n        <a href="\', escape=False)'
p143
sI59
S"response.write(URL(r=request,f='home',c='default'))"
p144
sI60
S'response.write(\'">HOME</a> </div>\\n    <div id="header-Bottom">\\n      <div id="logoBlock">\\n        <h1>My Music</h1>\\n        <p>EVERYMUSIC YOU WANT TO LISTEN </p>\\n      </div>\\n      <div id="navBlock">\\n        \\n        <h2>\\n        <img src="\', escape=False)'
p145
sI61
S"response.write(URL(r=request,f='download',args=session.auth.user.pic))"
p146
sI62
S'response.write(\'"  width="75px" height="75"/>\\n            \', escape=False)'
p147
sI63
S'response.write((session.auth.user.first_name).capitalize())'
p148
ssg119
S'()'
p149
sg121
S'<module>'
p150
sasS'pyver'
p151
S'Python 2.6.5: /usr/bin/python'
p152
sS'session'
p153
(dp154
S'_formkey[no_table_create]'
p155
S"'af9268ad-87ac-490b-86d3-46a70c211b5e'"
p156
sS'string'
p157
S"' '"
p158
sS'flash'
p159
S'None'
p160
sS'_formkey[list_create]'
p161
S"'7b1a110a-6e7e-48f9-a633-c2861aaf749b'"
p162
sS'auth'
p163
S"<Storage {'expiration': 3600, 'user': <Storage {...1, 2, 10, 14, 19, 10, 33739), 'remember': False}>"
p164
sS'_formkey[files_create]'
p165
S"'c109baea-b06c-4433-92ff-610b7d5bc3ac'"
p166
sS'type1'
p167
S"'All'"
p168
sS'_formkey[login]'
p169
S"'dc51aded-230d-4e47-ba8f-7f24656c589a'"
p170
ssS'etype'
p171
S"<type 'exceptions.NameError'>"
p172
sS'date'
p173
S'Thu Feb 10 14:19:10 2011'
p174
sS'response'
p175
(dp176
S'status'
p177
S'200'
p178
sg59
S'<cStringIO.StringO object>'
p179
sg76
S"<SimpleCookie: session_id_Music_Library='127.0.0.1-f6073a7a-5d4f-4849-b8c9-66821c401173'>"
p180
sS'_vars'
p181
S"{'byme': <gluon.dal.Rows object>, 'down': <gluon.dal.Rows object>, 'next': 0, 'pageno': 0, 'pre': 0, 'recent': <gluon.dal.Rows object>}"
p182
sS'title'
p183
S"'Music_Library'"
p184
sS'session_file'
p185
S"<open file '/home/aakarshit/Desktop/python/web2p...6073a7a-5d4f-4849-b8c9-66821c401173', mode 'rb+'>"
p186
sS'flash'
p187
S"''"
p188
sS'_custom_rollback'
p189
S'None'
p190
sS'session_id'
p191
S"'127.0.0.1-f6073a7a-5d4f-4849-b8c9-66821c401173'"
p192
sS'headers'
p193
S"<Storage {'Expires': 'Thu, 10 Feb 2011 08:49:10 ...he, must-revalidate, post-check=0, pre-check=0'}>"
p194
sS'meta'
p195
S"<Storage {'keywords': 'bla bla bla', 'description': 'describe your app', 'author': 'you'}>"
p196
sS'session_filename'
p197
S"'/home/aakarshit/Desktop/python/web2py/applicatio...ns/127.0.0.1-f6073a7a-5d4f-4849-b8c9-66821c401173'"
p198
sS'postprocessing'
p199
S'[]'
p200
sS'menu'
p201
S"[(<lazyT 'Index'>, False, <gluon.html.XML object>, []), (<lazyT 'Edit'>, False, <gluon.html.XML object>, [(<lazyT 'Controller'>, False, <gluon.html.XML object>), (<lazyT 'View'>, False, <gluon.html.XML object>), (<lazyT 'Layout'>, False, <gluon.html.XML object>), (<lazyT 'Stylesheet'>, False, <gluon.html.XML object>), (<lazyT 'DB Model'>, False, <gluon.html.XML object>), (<lazyT 'Menu Model'>, False, <gluon.html.XML object>), (<lazyT 'Database'>, False, <gluon.html.XML object>)])]"
p202
sS'_view_environment'
p203
S"{'A': <class 'gluon.html.A'>, 'Auth': <class 'gluon.tools.Auth'>, 'B': <class 'gluon.html.B'>, 'BEAUTIFY': <class 'gluon.html.BEAUTIFY'>, 'BODY': <class 'gluon.html.BODY'>, 'BR': <class 'gluon.html.BR'>, 'CENTER': <class 'gluon.html.CENTER'>, 'CLEANUP': <class 'gluon.validators.CLEANUP'>, 'CODE': <class 'gluon.html.CODE'>, 'CRYPT': <class 'gluon.validators.CRYPT'>, ...}"
p204
sS'subtitle'
p205
S"<lazyT 'customize me!'>"
p206
sS'session_id_name'
p207
S"'session_id_Music_Library'"
p208
sS'_custom_commit'
p209
S'None'
p210
sS'_caller'
p211
S'<function <lambda>>'
p212
sS'files'
p213
S'[<gluon.html.XML object>, <gluon.html.XML object>, <gluon.html.XML object>, <gluon.html.XML object>, <gluon.html.XML object>, <gluon.html.XML object>, <gluon.html.XML object>, <gluon.html.XML object>, <gluon.html.XML object>, <gluon.html.XML object>, <gluon.html.XML object>, <gluon.html.XML object>, <gluon.html.XML object>, <gluon.html.XML object>, <gluon.html.XML object>, <gluon.html.XML object>]'
p214
sS'view'
p215
S"'default/mymusic.html'"
p216
ssS'locals'
p217
(dp218
S'Service'
p219
S"<class 'gluon.tools.Service'>"
p220
sS'OBJECT'
p221
S"<class 'gluon.html.OBJECT'>"
p222
sS'_file'
p223
S'<gluon.html.XML object>'
p224
sS'SQLDB'
p225
S"<class 'gluon.dal.DAL'>"
p226
sg153
S"<Storage {'_formkey[no_table_create]': 'af9268ad...login]': 'dc51aded-230d-4e47-ba8f-7f24656c589a'}>"
p227
sS'LINK'
p228
S"<class 'gluon.html.LINK'>"
p229
sS'BR'
p230
S"<class 'gluon.html.BR'>"
p231
sS'local_import'
p232
S'<function <lambda>>'
p233
sS'OPTGROUP'
p234
S"<class 'gluon.html.OPTGROUP'>"
p235
sS'PRE'
p236
S"<class 'gluon.html.PRE'>"
p237
sS'IS_INT_IN_RANGE'
p238
S"<class 'gluon.validators.IS_INT_IN_RANGE'>"
p239
sS'IS_LOWER'
p240
S"<class 'gluon.validators.IS_LOWER'>"
p241
sS'IS_STRONG'
p242
S"<class 'gluon.validators.IS_STRONG'>"
p243
sS'Recaptcha'
p244
S"<class 'gluon.tools.Recaptcha'>"
p245
sS'cache'
p246
S'<gluon.cache.Cache object>'
p247
sS'IS_IN_DB'
p248
S"<class 'gluon.validators.IS_IN_DB'>"
p249
sS'TAG'
p250
S'<gluon.html.__TAG__ object>'
p251
sS'_k'
p252
S'15'
p253
sS'SQLField'
p254
S"<class 'gluon.dal.Field'>"
p255
sS'mail'
p256
S'<gluon.tools.Mail object>'
p257
sS'BODY'
p258
S"<class 'gluon.html.BODY'>"
p259
sS'IS_DATE_IN_RANGE'
p260
S"<class 'gluon.validators.IS_DATE_IN_RANGE'>"
p261
sS'TH'
p262
S"<class 'gluon.html.TH'>"
p263
sS'URL'
p264
S'<function _URL>'
p265
sS'db'
p266
S"<DAL {'auth_event': <Table {'origin': <gluon.dal..., 'id': <gluon.dal.Field object at 0xac7b32c>}>}>"
p267
sS'auth'
p268
S'<gluon.tools.Auth object>'
p269
sS'dat'
p270
S'2011'
p271
sS'P'
S"<class 'gluon.html.P'>"
p272
sS'TFOOT'
p273
S"<class 'gluon.html.TFOOT'>"
p274
sS'plugin_wiki_theme'
p275
S"'ui-darkness'"
p276
sS'XHTML'
p277
S"<class 'gluon.html.XHTML'>"
p278
sS'datetime'
p279
S"<module 'datetime' from '/usr/lib/python2.6/lib-dynload/datetime.so'>"
p280
sS'ON'
p281
S'True'
p282
sS'OL'
p283
S"<class 'gluon.html.OL'>"
p284
sS'TEXTAREA'
p285
S"<class 'gluon.html.TEXTAREA'>"
p286
sS'MENU'
p287
S"<class 'gluon.html.MENU'>"
p288
sS't'
S"<Table {'first_name': <gluon.dal.Field object at...b669d15150d7109e5f7ab36744a5b7_auth_user.table'}>"
p289
sS'IS_IMAGE'
p290
S"<class 'gluon.validators.IS_IMAGE'>"
p291
sS'LOAD'
p292
S'<gluon.compileapp.LoadFactory object>'
p293
sS'CODE'
p294
S"<class 'gluon.html.CODE'>"
p295
sS'HTTP'
p296
S"<class 'gluon.http.HTTP'>"
p297
sS'HR'
p298
S"<class 'gluon.html.HR'>"
p299
sS'IS_DATETIME'
p300
S"<class 'gluon.validators.IS_DATETIME'>"
p301
sS'HEAD'
p302
S"<class 'gluon.html.HEAD'>"
p303
sS'LABEL'
p304
S"<class 'gluon.html.LABEL'>"
p305
sS'META'
p306
S"<class 'gluon.html.META'>"
p307
sS'PluginWikiWidgets'
p308
S'<class __builtin__.PluginWikiWidgets>'
p309
sS'plugins'
p310
S'<gluon.tools.PluginManager object>'
p311
sS'SELECT'
p312
S"<class 'gluon.html.SELECT'>"
p313
sS'CENTER'
p314
S"<class 'gluon.html.CENTER'>"
p315
sS'prettydate'
p316
S'<function prettydate>'
p317
sS'Crud'
p318
S"<class 'gluon.tools.Crud'>"
p319
sS'Auth'
p320
S"<class 'gluon.tools.Auth'>"
p321
sS'IS_EQUAL_TO'
p322
S"<class 'gluon.validators.IS_EQUAL_TO'>"
p323
sS'IS_LIST_OF'
p324
S"<class 'gluon.validators.IS_LIST_OF'>"
p325
sS'SQLFORM'
p326
S"<class 'gluon.sqlhtml.SQLFORM'>"
p327
sS'_item'
p328
S"'author'"
p329
sS'EM'
p330
S"<class 'gluon.html.EM'>"
p331
sS'redirect'
p332
S'<function redirect>'
p333
sS'FIELDSET'
p334
S"<class 'gluon.html.FIELDSET'>"
p335
sS'__builtins__'
p336
S"{'ArithmeticError': <type 'exceptions.ArithmeticError'>, 'AssertionError': <type 'exceptions.AssertionError'>, 'AttributeError': <type 'exceptions.AttributeError'>, 'BaseException': <type 'exceptions.BaseException'>, 'BufferError': <type 'exceptions.BufferError'>, 'BytesWarning': <type 'exceptions.BytesWarning'>, 'DeprecationWarning': <type 'exceptions.DeprecationWarning'>, 'EOFError': <type 'exceptions.EOFError'>, 'Ellipsis': Ellipsis, 'EnvironmentError': <type 'exceptions.EnvironmentError'>, ...}"
p337
sS'embed64'
p338
S'<function embed64>'
p339
sS'INPUT'
p340
S"<class 'gluon.html.INPUT'>"
p341
sS'EMBED'
p342
S"<class 'gluon.html.EMBED'>"
p343
sS'_'
S'<function _>'
p344
sS'PluginWiki'
p345
S'<class __builtin__.PluginWiki>'
p346
sS'pageno'
p347
S'0'
sS'H2'
p348
S"<class 'gluon.html.H2'>"
p349
sS'H3'
p350
S"<class 'gluon.html.H3'>"
p351
sS'H1'
p352
S"<class 'gluon.html.H1'>"
p353
sS'H6'
p354
S"<class 'gluon.html.H6'>"
p355
sS'H4'
p356
S"<class 'gluon.html.H4'>"
p357
sS'H5'
p358
S"<class 'gluon.html.H5'>"
p359
sS'UL'
p360
S"<class 'gluon.html.UL'>"
p361
sS'IS_UPPER'
p362
S"<class 'gluon.validators.IS_UPPER'>"
p363
sS'xmlescape'
p364
S'<function xmlescape>'
p365
sS'IS_TIME'
p366
S"<class 'gluon.validators.IS_TIME'>"
p367
sS'OPTION'
p368
S"<class 'gluon.html.OPTION'>"
p369
sS'TITLE'
p370
S"<class 'gluon.html.TITLE'>"
p371
sS'DEFAULT'
p372
S"{'editor': False, 'level': 3, 'migrate': True, 'mode': 'markmin', 'theme': 'ui-darkness'}"
p373
sS'CRYPT'
p374
S"<class 'gluon.validators.CRYPT'>"
p375
sS'IS_EMPTY_OR'
p376
S"<class 'gluon.validators.IS_EMPTY_OR'>"
p377
sS'MARKMIN'
p378
S"<class 'gluon.html.MARKMIN'>"
p379
sS'down'
p380
S'<gluon.dal.Rows object>'
p381
sS'service'
p382
S'<gluon.tools.Service object>'
p383
sS'SCRIPT'
p384
S"<class 'gluon.html.SCRIPT'>"
p385
sS'next'
p386
S'0'
sS'geocode'
p387
S'<function geocode>'
p388
sS'TABLE'
p389
S"<class 'gluon.html.TABLE'>"
p390
sS'THEAD'
p391
S"<class 'gluon.html.THEAD'>"
p392
sS'IS_IPV4'
p393
S"<class 'gluon.validators.IS_IPV4'>"
p394
sS'IS_LENGTH'
p395
S"<class 'gluon.validators.IS_LENGTH'>"
p396
sS'XML'
p397
S"<class 'gluon.html.XML'>"
p398
sS'B'
S"<class 'gluon.html.B'>"
p399
sS'IMG'
p400
S"<class 'gluon.html.IMG'>"
p401
sS'SQLTABLE'
p402
S"<class 'gluon.sqlhtml.SQLTABLE'>"
p403
sS'IS_MATCH'
p404
S"<class 'gluon.validators.IS_MATCH'>"
p405
sS'IS_ALPHANUMERIC'
p406
S"<class 'gluon.validators.IS_ALPHANUMERIC'>"
p407
sS'_f'
p408
S"'plugin_wiki/multiselect/jquery.multiselect.js'"
p409
sS'SPAN'
p410
S"<class 'gluon.html.SPAN'>"
p411
sS'plugin_rating'
p412
S'<function plugin_rating>'
p413
sS'plugin_wiki_editor'
p414
g81
sS'IS_SLUG'
p415
S"<class 'gluon.validators.IS_SLUG'>"
p416
sS'CLEANUP'
p417
S"<class 'gluon.validators.CLEANUP'>"
p418
sS'today'
p419
S'datetime.date(2011, 2, 10)'
p420
sS'plugin_wiki_migrate'
p421
g282
sS'fetch'
p422
S'<function fetch>'
p423
sS'pre'
p424
S'0'
sS'IS_DATE'
p425
S"<class 'gluon.validators.IS_DATE'>"
p426
sS'IS_EMAIL'
p427
S"<class 'gluon.validators.IS_EMAIL'>"
p428
sS'IS_NOT_EMPTY'
p429
S"<class 'gluon.validators.IS_NOT_EMPTY'>"
p430
sS'IS_FLOAT_IN_RANGE'
p431
S"<class 'gluon.validators.IS_FLOAT_IN_RANGE'>"
p432
sS'BEAUTIFY'
p433
S"<class 'gluon.html.BEAUTIFY'>"
p434
sS'TBODY'
p435
S"<class 'gluon.html.TBODY'>"
p436
sS'Field'
p437
S"<class 'gluon.dal.Field'>"
p438
sS'plugin_wiki'
p439
S'<__builtin__.PluginWiki instance>'
p440
sS'plugin_wiki_level'
p441
S'3'
sg55
S"<Storage {'function': 'mymusic', 'body': <cStrin..., 14, 19, 10, 33739), 'post_vars': <Storage {}>}>"
p442
sS'Mail'
p443
S"<class 'gluon.tools.Mail'>"
p444
sS'DIV'
p445
S"<class 'gluon.html.DIV'>"
p446
sS'LEGEND'
p447
S"<class 'gluon.html.LEGEND'>"
p448
sS'byme'
p449
S'<gluon.dal.Rows object>'
p450
sS'DAL'
p451
S"<class 'gluon.dal.DAL'>"
p452
sS'TT'
p453
S"<class 'gluon.html.TT'>"
p454
sS'TR'
p455
S"<class 'gluon.html.TR'>"
p456
sS'LI'
p457
S"<class 'gluon.html.LI'>"
p458
sS'IFRAME'
p459
S"<class 'gluon.html.IFRAME'>"
p460
sS'TD'
p461
S"<class 'gluon.html.TD'>"
p462
sS'PluginManager'
p463
S"<class 'gluon.tools.PluginManager'>"
p464
sS'IS_URL'
p465
S"<class 'gluon.validators.IS_URL'>"
p466
sS'A'
S"<class 'gluon.html.A'>"
p467
sS'STYLE'
p468
S"<class 'gluon.html.STYLE'>"
p469
sS'IS_DATETIME_IN_RANGE'
p470
S"<class 'gluon.validators.IS_DATETIME_IN_RANGE'>"
p471
sS'HTML'
p472
S"<class 'gluon.html.HTML'>"
p473
sS'FORM'
p474
S"<class 'gluon.html.FORM'>"
p475
sS'I'
S"<class 'gluon.html.I'>"
p476
sS'crud'
p477
S'<gluon.tools.Crud object>'
p478
sS'IS_NOT_IN_DB'
p479
S"<class 'gluon.validators.IS_NOT_IN_DB'>"
p480
sg175
S"<Storage {'status': 200, 'body': <cStringIO.Stri...object at 0xad76b4c>], '_custom_rollback': None}>"
p481
sS'recent'
p482
S'<gluon.dal.Rows object>'
p483
sS'IS_NULL_OR'
p484
S"<class 'gluon.validators.IS_EMPTY_OR'>"
p485
sS'plugin_wiki_mode'
p486
S"'markmin'"
p487
sS'm'
g282
sS'IS_EXPR'
p488
S"<class 'gluon.validators.IS_EXPR'>"
p489
sS'T'
S'<gluon.languages.translator object>'
p490
sS'IS_IN_SET'
p491
S"<class 'gluon.validators.IS_IN_SET'>"
p492
sS'IS_UPLOAD_FILENAME'
p493
S"<class 'gluon.validators.IS_UPLOAD_FILENAME'>"
p494
sS'IS_DECIMAL_IN_RANGE'
p495
S"<class 'gluon.validators.IS_DECIMAL_IN_RANGE'>"
p496
sssS'traceback'
p497
S'Traceback (most recent call last):\n  File "/home/aakarshit/Desktop/python/web2py/gluon/restricted.py", line 188, in restricted\n    exec ccode in environment\n  File "/home/aakarshit/Desktop/python/web2py/applications/Music_Library/views/default/mymusic.html", line 57, in <module>\n    {{import time}}\nNameError: name \'upload\' is not defined\n'
p498
s.