(dp1
S'output'
p2
S''
sS'layer'
p3
S'/home/aakarshit/Desktop/python/web2py/applications/Music_Library/views/default/mymusic.html'
p4
sS'code'
p5
S'response.write(\'<!DOCTYPE html PUBLIC "-//W3C//DTD XHTML 1.0 Transitional//EN" "http://www.w3.org/TR/xhtml1/DTD/xhtml1-transitional.dtd">\\n<html xmlns="http://www.w3.org/1999/xhtml" xml:lang="\', escape=False)\nresponse.write(T.accepted_language or \'en\')\nresponse.write(\'">\\n<head>\\n<meta http-equiv="Content-Type" content="text/html; charset=iso-8859-1" />\\n<title>\', escape=False)\nresponse.write(response.title or request.application)\nresponse.write(\'</title>\\n<link rel="shortcut icon"\\n      href="\', escape=False)\nresponse.write(URL(request.application,\'static\',\'favicon.ico\'))\nresponse.write(\'" \\n      type="image/vnd.microsoft.icon"/>\\n    \', escape=False)\n#------  require CSS and JS files for this page (read info in base.css) ------\nresponse.write(\'\\n    \', escape=False)\nresponse.files.append(URL(request.application,\'static\',\'music2.css\'))\nresponse.write(\'\\n    \\n    \', escape=False)\nresponse.files.append(URL(request.application,\'static\',\'music_both.css\'))\nresponse.write(\'\\n    \', escape=False)\nresponse.files.append(URL(request.application,\'static\',\'superfish.js\'))\nresponse.write(\'\\n    \', escape=False)\n#------ include web2py specific js code (jquery, calendar, form stuff) ------\nresponse.write(\'\\n    \', escape=False)\nresponse.files.insert(0,URL(r=request,c=\'static\',f=\'jquery.js\'))\nresponse.files.insert(1,URL(r=request,c=\'static\',f=\'calendar.css\'))\nresponse.files.insert(2,URL(r=request,c=\'static\',f=\'calendar.js\'))\nfor _item in response.meta or []:\n    response.write(\'\\n     <meta name="\', escape=False)\n    response.write(_item)\n    response.write(\'" content="\', escape=False)\n    response.write(response.meta[_item])\n    response.write(\'" />\', escape=False)\n    pass\nfor _k,_file in enumerate(response.files or []):\n    if _file in response.files[:_k]:\n        continue\n    elif _file.lower().endswith(\'.css\'):\n        response.write(\'\\n     <link href="\', escape=False)\n        response.write(_file)\n        response.write(\'" rel="stylesheet" type="text/css" />\', escape=False)\n    elif _file.lower().endswith(\'.js\'):\n        response.write(\'\\n     <script src="\', escape=False)\n        response.write(_file)\n        response.write(\'" type="text/javascript"></script>\', escape=False)\n        pass\n    pass\nresponse.write(\'\\n<script type="text/javascript"><!--\\nfunction popup(url) {\\n  newwindow=window.open(url,\\\'name\\\',\\\'height=400,width=600\\\');\\n  if (window.focus) newwindow.focus();\\n  return false;\\n}\\nfunction collapse(id) { jQuery(\\\'#\\\'+id).slideToggle(); }\\nfunction fade(id,value) { if(value>0) jQuery(\\\'#\\\'+id).hide().fadeIn(\\\'slow\\\'); else jQuery(\\\'#\\\'+id).show().fadeOut(\\\'slow\\\'); }\\nfunction ajax(u,s,t) {\\n    query = \\\'\\\';\\n    if (typeof s == "string") {\\n        d = jQuery(s).serialize();\\n        if(d){ query = d; }\\n    } else {\\n        pcs = [];\\n        for(i=0; i<s.length; i++) {\\n            q = jQuery("#"+s[i]).serialize();\\n            if(q){pcs.push(q);}\\n        }\\n        if (pcs.length>0){query = pcs.join("&");}\\n    }\\n    jQuery.ajax({type: "POST", url: u, data: query, success: function(msg) { if(t) { if(t==\\\':eval\\\') eval(msg); else jQuery("#" + t).html(msg); } } }); \\n}\\nString.prototype.reverse = function () { return this.split(\\\'\\\').reverse().join(\\\'\\\');};\\nfunction web2py_ajax_init() {\\n  jQuery(\\\'.hidden\\\').hide();\\n  jQuery(\\\'.error\\\').hide().slideDown(\\\'slow\\\');\\n  jQuery(\\\'.flash\\\').click(function() { jQuery(this).fadeOut(\\\'slow\\\'); return false; });\\n  jQuery(\\\'input.integer\\\').keyup(function(){this.value=this.value.reverse().replace(/[^0-9\\\\-]|\\\\-(?=.)/g,\\\'\\\').reverse();});\\n  jQuery(\\\'input.double\\\').keyup(function(){this.value=this.value.reverse().replace(/[^0-9\\\\-\\\\.]|[\\\\-](?=.)|[\\\\.](?=[0-9]*[\\\\.])/g,\\\'\\\').reverse();});\\n  jQuery("input[type=\\\'checkbox\\\'].delete").each(function(){jQuery(this).click(function() { if(this.checked) if(!confirm("\', escape=False)\nresponse.write(T(\'Sure you want to delete this object?\'))\nresponse.write(\'")) this.checked=false; });});\\n  try {jQuery("input.date").focus( function() {Calendar.setup({\\n     inputField:this.id, ifFormat:"\', escape=False)\nresponse.write(T(\'%Y-%m-%d\'))\nresponse.write(\'", showsTime:false\\n  }); }); } catch(e) {};\\n  try { jQuery("input.datetime").focus( function() {Calendar.setup({\\n     inputField:this.id, ifFormat:"\', escape=False)\nresponse.write(T(\'%Y-%m-%d %H:%M:%S\'))\nresponse.write(\'", showsTime: true,timeFormat: "24"\\n  }); }); } catch(e) {};\\n  try { jQuery("input.time").clockpick({\\n      starthour:0, endhour:23, showminutes:true, military:true\\n  }); } catch(e) {};\\n};\\njQuery(document).ready(function(){\\n   jQuery(\\\'.flash\\\').hide();\\n   if(jQuery(\\\'.flash\\\').html()!=\\\'\\\') jQuery(\\\'.flash\\\').slideDown(\\\'slow\\\');\\n   web2py_ajax_init();});\\n\\nfunction web2py_trap_form(action,target) {\\n   jQuery(\\\'#\\\'+target+\\\' form\\\').each(function(i){\\n      var form=jQuery(this);\\n      if(!form.hasClass(\\\'no_trap\\\'))\\n        form.submit(function(obj){\\n         jQuery(\\\'.flash\\\').hide().html(\\\'\\\');\\n         web2py_ajax_page(\\\'post\\\',action,form.serialize(),target);\\n         return false;\\n      });\\n   });\\n}\\n\\nfunction web2py_ajax_page(method,action,data,target) {\\n  jQuery.ajax({\\\'type\\\':method,\\\'url\\\':action,\\\'data\\\':data,\\n    \\\'beforeSend\\\':function(xhr){\\n      xhr.setRequestHeader(\\\'web2py-component-location\\\',document.location);\\n      xhr.setRequestHeader(\\\'web2py-component-element\\\',target);},\\n    \\\'complete\\\':function(xhr,text){\\n      command=xhr.getResponseHeader(\\\'web2py-component-command\\\');\\n      if(command) eval(command);\\n      flash=xhr.getResponseHeader(\\\'web2py-component-flash\\\');\\n      if(flash) jQuery(\\\'.flash\\\').html(flash).slideDown();\\n      },\\n    \\\'success\\\': function(text) {\\n      jQuery(\\\'#\\\'+target).html(text);\\n      web2py_trap_form(action,target);\\n      web2py_ajax_init();\\n      }\\n    });\\n}\\nfunction web2py_component(action,target) {\\n    jQuery(document).ready(function(){ web2py_ajax_page(\\\'get\\\',action,null,target); });\\n}\\n//--></script>\\n\', escape=False)\nresponse.write(\'\\n</head>\\n<body>\\n\\n<div class="flash">\', escape=False)\nresponse.write(response.flash or \'\')\nresponse.write(\'</div>\\n\\n\\n<div id="main">\\n  <div id="header">\\n   <div id="menu"> <a href="\', escape=False)\nresponse.write(URL(r=request,f=\'user\',args=\'logout\',c=\'default\'))\nresponse.write(\'">LOGOUT </a>\\n     <a href="#">ABOUT US </a>\\n      <a href="\', escape=False)\nresponse.write(URL(r=request,f=\'playlist\',c=\'default\'))\nresponse.write(\'">PLAYLIST </a>\\n       <a href="\', escape=False)\nresponse.write(URL(r=request,f=\'mymusic\',c=\'default\'))\nresponse.write(\'">MY SONGS</a>\\n       <a href=>UPLOAD </a>\\n"\', escape=False)\nresponse.write(URL(r=request,f=\'{{newlink)\nresponse.write(\'\\\',c=\\\'default\\\')}}"\\n        <a href="\', escape=False)\nresponse.write(URL(r=request,f=\'home\',c=\'default\'))\nresponse.write(\'">HOME</a> </div>\\n    <div id="header-Bottom">\\n      <div id="logoBlock">\\n        <h1>My Music</h1>\\n        <p>EVERYMUSIC YOU WANT TO LISTEN </p>\\n      </div>\\n      <div id="navBlock">\\n        \\n        <h2>\\n        <img src="\', escape=False)\nresponse.write(URL(r=request,f=\'download\',args=session.auth.user.pic))\nresponse.write(\'"  width="75px" height="75"/>\\n            \', escape=False)\nresponse.write((session.auth.user.first_name).capitalize())\nresponse.write(\'\\n         </h2>\\n         </div>\\n\\n    </div>\\n  </div>\\n  <div id="mainCont">\\n    <div id="leftCol">\\n      <div id="welcomeBox">\\n\\n        \\n        \\n      </div>\\n      <div id="playListTop">\\n        <h3>MY SONGS</h3>\\n\\n      </div>\\n      \', escape=False)\nimport time\nresponse.write(\'\\n       <div id="playListBody">\\n        <div class="head">\\n          <p class="left">PLAY</p>\\n          <p class="centr">TRACK</p>\\n          <p class="right">ARTIST</p>\\n          <p class="right">ALBUM</p>\\n          <p class="rightl">TIME</p>\\n        </div>\\n       \', escape=False)\nflag=1\nresponse.write(\'\\n       \', escape=False)\nfor i in byme:\n    response.write(\'\\n        \\n          \', escape=False)\n    if(flag==1):\n        response.write(\'\\n            \', escape=False)\n        p="playListDark"\n        response.write(\'\\n          \', escape=False)\n    else:\n        response.write(\'\\n            \', escape=False)\n        p="playListLight"\n        response.write(\'\\n          \', escape=False)\n        pass\n    response.write(\'\\n             \\n       <div class="\', escape=False)\n    response.write(p)\n    response.write(\'">\\n          <a href="\', escape=False)\n    response.write(URL(r=request,f=\'play\',args=i.id))\n    response.write(\'">\\n          <p class="play"></p></a>   <!-- give the link to play the file -->\\n          <p class="track">\', escape=False)\n    response.write(i.name[:16])\n    response.write(\'</p>\\n          <p class="artist">\', escape=False)\n    response.write(i.artist[:16])\n    response.write(\'</p>\\n          <p class="artist">\', escape=False)\n    response.write(i.album[:15])\n    response.write(\'</p>\\n          <p class="length">\', escape=False)\n    response.write(time.strftime(\'%M:%S\', time.gmtime(i.length)))\n    response.write(\'</p>\\n          </div>\\n      \', escape=False)\n    flag*=-1\n    response.write(\'\\n      \', escape=False)\n    pass\nresponse.write(\'\\n     \\n   \\n\\n        <div class="playListLight">\\n          \\n          <p class="bot">&nbsp;</p>\\n\\n        </div>\\n      </div>\\n      <div id="playListBot">\\n      \', escape=False)\nif pre==1:\n    response.write(\'\\n               \\t<h1> \', escape=False)\n    response.write(A(\'PREVIOUS\',_href=URL(r=request,f=\'mymusic\',c=\'default\',vars= dict(pageno=pageno-1))))\n    response.write(\' </h1>\\n       \', escape=False)\n    pass\nresponse.write(\'\\n       \', escape=False)\nif next==1:\n    response.write(\'\\n               \\t<h2>\', escape=False)\n    response.write(A(\'NEXT\',_href=URL(r=request,f=\'mymusic\',c=\'default\',vars= dict(pageno=pageno + 1))))\n    response.write(\'</h2>\\n      \', escape=False)\n    pass\nresponse.write(\'\\n      </div>\\n    </div>\\n    <div id="centrCol">\\n      <div class="banr"><img src="\', escape=False)\nresponse.write(URL(request.application,\'static\',\'music.jpg\'))\nresponse.write(\'" width="275" height="182" border="0" alt="banr"/></div>\\n      <div id="albmBlock">\\n        \', escape=False)\nfor i in recent:\n    response.write(\'\\n        <div id="albmBox">\\n          <div class="topCont">\\n           <h1><a class="left" href="\', escape=False)\n    response.write(URL(r=request,f=\'play\',args=i.id))\n    response.write(\'"><img src="\', escape=False)\n    response.write(URL(request.application,\'static\',i.pic))\n    response.write(\'" width="62" height="54" border="0" alt=""/></a></h1>\\n            <p class="headings">\', escape=False)\n    response.write(i.name[:18])\n    response.write(\' <br /><span>\', escape=False)\n    response.write(i.album[:18])\n    response.write(\'</span><br /><span>\', escape=False)\n    response.write(i.artist[:18])\n    response.write(\'</span></p></div>\\n          <div class="botCont"> <a class="left" href="\', escape=False)\n    response.write(URL(r=request,f=\'play\',args=i.id))\n    response.write(\'">play</a> </div>\\n        </div>\\n        \', escape=False)\n    pass\nresponse.write(\'\\n      </div>\\n    </div>\\n    <div id="rightCol">\\n      <div id="videoBlock">\\n        <div id="videoBlockTop">\\n          <h3>TOP DOWNLOADS</h3>\\n          <p>The latest music, albums, concerts and more<br />\\n          play your favourites</p>\\n\\n        </div>\\n         <div id="videoBlockBody">\\n      \', escape=False)\nfor i in down:\n    response.write(\'\\n          <div class="vidBox">\\n            <div class="leftBox">\\n            <a class="left" href="\', escape=False)\n    response.write(URL(r=request,f=\'play\',args=i.id))\n    response.write(\'">\\n              <p class="bold"><b>\', escape=False)\n    response.write(i.name[:30])\n    response.write(\'</b></p></a>\\n              <p class="light">\', escape=False)\n    response.write(i.album[:20])\n    response.write(\'</p>\\n              <p class="dark">\', escape=False)\n    response.write(i.artist[:20])\n    response.write(\'</p>\\n            </div>\\n            <p class="rightBox"><a class="left" href="\', escape=False)\n    response.write(URL(r=request,f=\'play\',args=i.id))\n    response.write(\'"><img src="\', escape=False)\n    response.write(URL(request.application,\'static\',i.pic))\n    response.write(\'"  width="81" height="38" border="0" alt=""/></a></p> <!-- modify-->\\n          </div>\\n        \\n     \', escape=False)\n    pass\nresponse.write(\'\\n              \\n        </div>\\n      </div>\\n      <div id="videoBlockBot"></div>\\n    </div>\\n  </div>\\n  <div id="footer">\\n<br /><br /><br /><br />\\n   <div class="rights">Copyright \\xc2\\xa9 2010 <a href="#">www.mymusic.com.</a> All Rights Reserved.</div>\\n\\n      <div class="rights">Designed by:Vibhor Goel  and  Sourav Dutta</div>\\n  </div>\\n</div>\\n\\n</body>\\n</html>\\n\', escape=False)'
p6
sS'snapshot'
p7
(dp8
S'exception'
p9
(dp10
S'__getslice__'
p11
S"<method-wrapper '__getslice__' of exceptions.SyntaxError object>"
p12
sS'text'
p13
S'"response.write(URL(r=request,f=\'{{newlink)\\n"'
p14
sS'__str__'
p15
S"<method-wrapper '__str__' of exceptions.SyntaxError object>"
p16
sS'__reduce__'
p17
S'<built-in method __reduce__ of exceptions.SyntaxError object>'
p18
sS'__dict__'
p19
S'{}'
p20
sS'__sizeof__'
p21
S'<built-in method __sizeof__ of exceptions.SyntaxError object>'
p22
sS'__init__'
p23
S"<method-wrapper '__init__' of exceptions.SyntaxError object>"
p24
sS'__setattr__'
p25
S"<method-wrapper '__setattr__' of exceptions.SyntaxError object>"
p26
sS'__reduce_ex__'
p27
S'<built-in method __reduce_ex__ of exceptions.SyntaxError object>'
p28
sS'__new__'
p29
S'<built-in method __new__ of type object>'
p30
sS'__format__'
p31
S'<built-in method __format__ of exceptions.SyntaxError object>'
p32
sS'__class__'
p33
S"<type 'exceptions.SyntaxError'>"
p34
sS'filename'
p35
S"'/home/aakarshit/Desktop/python/web2py/applications/Music_Library/views/default/mymusic.html'"
p36
sS'lineno'
p37
S'57'
p38
sS'msg'
p39
S"'EOL while scanning string literal'"
p40
sS'__doc__'
p41
S"'Invalid syntax.'"
p42
sS'__getitem__'
p43
S"<method-wrapper '__getitem__' of exceptions.SyntaxError object>"
p44
sS'__setstate__'
p45
S'<built-in method __setstate__ of exceptions.SyntaxError object>'
p46
sS'__getattribute__'
p47
S"<method-wrapper '__getattribute__' of exceptions.SyntaxError object>"
p48
sS'print_file_and_line'
p49
S'None'
p50
sS'args'
p51
S'(\'EOL while scanning string literal\', (\'/home/aakarshit/Desktop/python/web2py/applications/Music_Library/views/default/mymusic.html\', 57, 42, "response.write(URL(r=request,f=\'{{newlink)\\n"))'
p52
sS'__subclasshook__'
p53
S'<built-in method __subclasshook__ of type object>'
p54
sS'offset'
p55
S'42'
p56
sS'__unicode__'
p57
S'<built-in method __unicode__ of exceptions.SyntaxError object>'
p58
sS'__delattr__'
p59
S"<method-wrapper '__delattr__' of exceptions.SyntaxError object>"
p60
sS'__repr__'
p61
S"<method-wrapper '__repr__' of exceptions.SyntaxError object>"
p62
sS'__hash__'
p63
S"<method-wrapper '__hash__' of exceptions.SyntaxError object>"
p64
ssS'evalue'
p65
S'EOL while scanning string literal (mymusic.html, line 57)'
p66
sS'request'
p67
(dp68
S'function'
p69
S"'mymusic'"
p70
sS'body'
p71
S'<cStringIO.StringO object>'
p72
sS'wsgi'
p73
S"<Storage {'start_response': <function <lambda> a... 'PATH_INFO': '/Music_Library/default/mymusic'}}>"
p74
sS'extension'
p75
S"'html'"
p76
sS'vars'
p77
S'<Storage {}>'
p78
sS'cid'
p79
S'None'
p80
sS'url'
p81
S'<gluon.html.XML object>'
p82
sS'raw_extension'
p83
S'None'
p84
sg51
S'[]'
p85
sS'controller'
p86
S"'default'"
p87
sS'cookies'
p88
S"<SimpleCookie: session_id_Music_Library='127.0.0...'127.0.0.1-b57c378d-05df-4c08-a9cf-2ab5f1e0f3d0'>"
p89
sS'application'
p90
S"'Music_Library'"
p91
sS'ajax'
p92
S'False'
p93
sS'client'
p94
S"'127.0.0.1'"
p95
sS'env'
p96
S"<Storage {'wsgi_multithread': True, 'http_accept..., 'path_info': '/Music_Library/default/mymusic'}>"
p97
sS'raw_args'
p98
S'None'
p99
sS'get_vars'
p100
S'<Storage {}>'
p101
sS'folder'
p102
S"'/home/aakarshit/Desktop/python/web2py/applications/Music_Library/'"
p103
sS'now'
p104
S'datetime.datetime(2011, 2, 10, 11, 35, 33, 431460)'
p105
sS'post_vars'
p106
S'<Storage {}>'
p107
ssS'frames'
p108
(lp109
(dp110
S'file'
p111
S'/home/aakarshit/Desktop/python/web2py/gluon/restricted.py'
p112
sS'dump'
p113
(dp114
S'code'
p115
S'\'response.write(\\\'<!DOCTYPE html PUBLIC "-//W3C//D...iv>\\\\n</div>\\\\n\\\\n</body>\\\\n</html>\\\\n\\\', escape=False)\''
p116
sS'layer'
p117
S"'/home/aakarshit/Desktop/python/web2py/applications/Music_Library/views/default/mymusic.html'"
p118
sS'global compile2'
p119
S'<function compile2>'
p120
sS'ccode'
p121
S'undefined'
p122
ssS'lnum'
p123
I186
sS'lines'
p124
(dp125
I181
S''
sI182
S'    try:'
p126
sI183
S'        if type(code) == types.CodeType:'
p127
sI184
S'            ccode = code'
p128
sI185
S'        else:'
p129
sI186
S'            ccode = compile2(code,layer)'
p130
sI187
S''
sI188
S'        exec ccode in environment'
p131
sI189
S'    except HTTP:'
p132
sI190
S'        raise'
p133
ssS'call'
p134
S'(code=\'response.write(\\\'<!DOCTYPE html PUBLIC "-//W3C//D...iv>\\\\n</div>\\\\n\\\\n</body>\\\\n</html>\\\\n\\\', escape=False)\', environment={\'A\': <class \'gluon.html.A\'>, \'Auth\': <class \'gluon.tools.Auth\'>, \'B\': <class \'gluon.html.B\'>, \'BEAUTIFY\': <class \'gluon.html.BEAUTIFY\'>, \'BODY\': <class \'gluon.html.BODY\'>, \'BR\': <class \'gluon.html.BR\'>, \'CENTER\': <class \'gluon.html.CENTER\'>, \'CLEANUP\': <class \'gluon.validators.CLEANUP\'>, \'CODE\': <class \'gluon.html.CODE\'>, \'CRYPT\': <class \'gluon.validators.CRYPT\'>, ...}, layer=\'/home/aakarshit/Desktop/python/web2py/applications/Music_Library/views/default/mymusic.html\')'
p135
sS'func'
p136
S'restricted'
p137
sa(dp138
g111
S'/home/aakarshit/Desktop/python/web2py/gluon/restricted.py'
p139
sg113
(dp140
S'builtincompile'
p141
S'<built-in function compile>'
p142
sS'code'
p143
S'\'response.write(\\\'<!DOCTYPE html PUBLIC "-//W3C//D...iv>\\\\n</div>\\\\n\\\\n</body>\\\\n</html>\\\\n\\\', escape=False)\''
p144
sS'code.rstrip'
p145
S'<built-in method rstrip of str object>'
p146
sS').replace'
p147
g122
sS'layer'
p148
S"'/home/aakarshit/Desktop/python/web2py/applications/Music_Library/views/default/mymusic.html'"
p149
ssg123
I173
sg124
(dp150
I168
S''
sI169
S'def compile2(code,layer):'
p151
sI170
S'    """'
p152
sI171
S"    The +'\\n' is necessary else compile fails when code ends in a comment."
p153
sI172
S'    """'
p154
sI173
S"    return compile(code.rstrip().replace('\\r\\n','\\n')+'\\n', layer, 'exec')"
p155
sI174
S''
sI175
S"def restricted(code, environment={}, layer='Unknown'):"
p156
sI176
S'    """'
p157
sI177
S'    runs code in environment and returns the output. if an exception occurs'
p158
ssg134
S'(code=\'response.write(\\\'<!DOCTYPE html PUBLIC "-//W3C//D...iv>\\\\n</div>\\\\n\\\\n</body>\\\\n</html>\\\\n\\\', escape=False)\', layer=\'/home/aakarshit/Desktop/python/web2py/applications/Music_Library/views/default/mymusic.html\')'
p159
sg136
S'compile2'
p160
sasS'pyver'
p161
S'Python 2.6.5: /usr/bin/python'
p162
sS'session'
p163
(dp164
S'_formkey[no_table_create]'
p165
S"'aa130c81-8007-4712-8654-5de1c98668b9'"
p166
sS'string'
p167
S"' '"
p168
sS'flash'
p169
S'None'
p170
sS'auth'
p171
S"<Storage {'expiration': 3600, 'user': <Storage {..., 2, 10, 11, 35, 33, 431460), 'remember': False}>"
p172
sS'type1'
p173
S"'All'"
p174
sS'_formkey[login]'
p175
S"'c7b00b89-f81c-4948-8c26-8966a2bd2d67'"
p176
ssS'etype'
p177
S"<type 'exceptions.SyntaxError'>"
p178
sS'date'
p179
S'Thu Feb 10 11:35:33 2011'
p180
sS'response'
p181
(dp182
S'status'
p183
S'200'
p184
sg71
S'<cStringIO.StringO object>'
p185
sg88
S"<SimpleCookie: session_id_Music_Library='127.0.0.1-f6073a7a-5d4f-4849-b8c9-66821c401173'>"
p186
sS'_vars'
p187
S"{'byme': <gluon.dal.Rows object>, 'down': <gluon.dal.Rows object>, 'newlink': <Storage {'function': 'mymusic', 'body': <cStrin... 11, 35, 33, 431460), 'post_vars': <Storage {}>}>, 'next': 0, 'pageno': 0, 'pre': 0, 'recent': <gluon.dal.Rows object>}"
p188
sS'title'
p189
S"'Music_Library'"
p190
sS'session_file'
p191
S"<open file '/home/aakarshit/Desktop/python/web2p...6073a7a-5d4f-4849-b8c9-66821c401173', mode 'rb+'>"
p192
sS'flash'
p193
S"''"
p194
sS'_custom_rollback'
p195
S'None'
p196
sS'session_id'
p197
S"'127.0.0.1-f6073a7a-5d4f-4849-b8c9-66821c401173'"
p198
sS'headers'
p199
S"<Storage {'Expires': 'Thu, 10 Feb 2011 06:05:33 ...he, must-revalidate, post-check=0, pre-check=0'}>"
p200
sS'meta'
p201
S"<Storage {'keywords': 'bla bla bla', 'description': 'describe your app', 'author': 'you'}>"
p202
sS'session_filename'
p203
S"'/home/aakarshit/Desktop/python/web2py/applicatio...ns/127.0.0.1-f6073a7a-5d4f-4849-b8c9-66821c401173'"
p204
sS'postprocessing'
p205
S'[]'
p206
sS'menu'
p207
S"[(<lazyT 'Index'>, False, <gluon.html.XML object>, []), (<lazyT 'Edit'>, False, <gluon.html.XML object>, [(<lazyT 'Controller'>, False, <gluon.html.XML object>), (<lazyT 'View'>, False, <gluon.html.XML object>), (<lazyT 'Layout'>, False, <gluon.html.XML object>), (<lazyT 'Stylesheet'>, False, <gluon.html.XML object>), (<lazyT 'DB Model'>, False, <gluon.html.XML object>), (<lazyT 'Menu Model'>, False, <gluon.html.XML object>), (<lazyT 'Database'>, False, <gluon.html.XML object>)])]"
p208
sS'_view_environment'
p209
S"{'A': <class 'gluon.html.A'>, 'Auth': <class 'gluon.tools.Auth'>, 'B': <class 'gluon.html.B'>, 'BEAUTIFY': <class 'gluon.html.BEAUTIFY'>, 'BODY': <class 'gluon.html.BODY'>, 'BR': <class 'gluon.html.BR'>, 'CENTER': <class 'gluon.html.CENTER'>, 'CLEANUP': <class 'gluon.validators.CLEANUP'>, 'CODE': <class 'gluon.html.CODE'>, 'CRYPT': <class 'gluon.validators.CRYPT'>, ...}"
p210
sS'subtitle'
p211
S"<lazyT 'customize me!'>"
p212
sS'session_id_name'
p213
S"'session_id_Music_Library'"
p214
sS'_custom_commit'
p215
S'None'
p216
sS'_caller'
p217
S'<function <lambda>>'
p218
sS'files'
p219
S'[<gluon.html.XML object>, <gluon.html.XML object>, <gluon.html.XML object>, <gluon.html.XML object>, <gluon.html.XML object>, <gluon.html.XML object>, <gluon.html.XML object>, <gluon.html.XML object>, <gluon.html.XML object>, <gluon.html.XML object>]'
p220
sS'view'
p221
S"'default/mymusic.html'"
p222
ssS'locals'
p223
(dp224
g3
S"'/home/aakarshit/Desktop/python/web2py/applications/Music_Library/views/default/mymusic.html'"
p225
sg5
S'\'response.write(\\\'<!DOCTYPE html PUBLIC "-//W3C//D...iv>\\\\n</div>\\\\n\\\\n</body>\\\\n</html>\\\\n\\\', escape=False)\''
p226
sssS'traceback'
p227
S'Traceback (most recent call last):\n  File "/home/aakarshit/Desktop/python/web2py/gluon/restricted.py", line 186, in restricted\n    ccode = compile2(code,layer)\n  File "/home/aakarshit/Desktop/python/web2py/gluon/restricted.py", line 173, in compile2\n    return compile(code.rstrip().replace(\'\\r\\n\',\'\\n\')+\'\\n\', layer, \'exec\')\n  File "/home/aakarshit/Desktop/python/web2py/applications/Music_Library/views/default/mymusic.html", line 57\n    response.write(URL(r=request,f=\'{{newlink)\n                                             ^\nSyntaxError: EOL while scanning string literal\n'
p228
s.