(dp1
S'output'
p2
S''
sS'layer'
p3
S'/home/aakarshit/Desktop/python/web2py/applications/Music_Library/controllers/default.py'
p4
sS'code'
p5
S'# -*- coding: utf-8 -*- \n\n#########################################################################\n## This is a samples controller\n## - index is the default action of any application\n## - user is required for authentication and authorization\n## - download is for downloading files uploaded in the db (does streaming)\n## - call exposes all registered services (none by default)\n#########################################################################  \n\n#default homepage redirected to home\nauth.settings.create_user_groups = False\n@auth.requires_login()\ndef index():\n    """\n    example action using the internationalizatioREADMEn operator T and flash\n    rendered by views/default/index.html or views/generic.html\n    """\n    redirect(URL(r=request,f=\'home\'))\n    return dict(message=T(\'Hello World\'))\n\n#function for user login/logout\ndef user():\n    if request.args(0)==\'logout\':\n        ip=0;\n        down=0;\n        for i in db(db.ip_add.ip==str(request.env.remote_addr)).select():\n            ip=i.id\n            down=i.hits+1   \n        if ip:  db(db.ip_add.id==ip).update(hits=down,last=request.now,port=request.env.remote_port)\n        else:  db.ip_add.insert(ip=str(request.env.remote_addr),hits=0,last=request.now,port=request.env.remote_port)\n        session.clear()     #if requestfor logout clear the session\n        redirect(URL(r=request,f=\'user\',args=\'login\'))#redirect to login page\n    \n    """\n    exposes:\n    http://..../[app]/default/user/login \n    http://..../[app]/default/user/logout\n    http://..../[app]/default/user/register\n    http://..../[app]/default/user/profile\n    http://..../[app]/default/user/retrieve_password\n    http://..../[app]/default/user/change_password\n    use @auth.requires_login()\n        @auth.requires_membership(\'group name\')\n        @auth.requires_permission(\'read\',\'table name\',record_id)\n    to decorate functions that need access control\n    """\n    \n    down=db(db.song.id>0).select(orderby=~db.song.nod,limitby=(0,10))         #contains details of top download\n    recent=db(db.song.id>0).select(orderby=~db.song.doup,limitby=(0,4))       #contains details of recently uploaded files\n    return dict(form=auth(),down=down,recent=recent)\n\n#the logout function\ndef logout():\n    session.clear()\n    redirect(URL(r=request,f=\'index\'))\n    return \n\n\n#the page to register\ndef register():\n    session.clear()\n    form=SQLFORM(db.auth_user)\n    down=db(db.song.id>0).select(orderby=~db.song.nod,limitby=(0,10))\n    recent=db(db.song.id>0).select(orderby=~db.song.doup,limitby=(0,4))\n        \n    if form.accepts(request.vars,session):\n            redirect(URL(r=request,f=\'user\',args=\'login\'))#if registeration is sucessful  redirct to homepage\n            \n    return dict(form=form,down=down,recent=recent)\n\n#default function to download the filea in database\n@auth.requires_login()\ndef download():\n     \n    if(request.vars.has_key(\'songid\')):  #if it is called to download the no of download of that song is increased by one\n        rat1=db(db.plugin_rating_master.id>0).select()\n        rat=3.0\n        for i in rat1:\n            rat=i.rating\n        so=int(request.vars[\'songid\'])\n        curr=db(db.song.id==so).select()\n        down=0\n        rat1=3.0\n        for i in curr:\n             down=int(i.nod)+1\n             rat1=i.rating\n        rat=((rat1*(down-1))+rat)/down\n        db(db.song.id==so).update(nod=down,rating=rat)\n        \n    """\n    allows downloading of uploaded files\n    http://..../[app]/default/download/[filename]\n    """\n    return response.download(request,db)\n\n\ndef call():\n    """\n    exposes services. for example:\n    http://..../[app]/default/call/jsonrpc\n    decorate with @services.jsonrpc the functions to expose\n    supports xml, json, xmlrpc, jsonrpc, amfrpc, rss, csv\n    """\n    session.forget()\n    return service()\n\nimport re\n#function that process the search string and returns the ids of mathched results\n@auth.requires_login()\ndef process_search(s1,p):\n    s=\'\\w*\\s*\\W*\'\n    reg=s\n    for i in s1.split():\n        reg=reg+i+s         #create a regular expression\n    l=[]\n    #search for the regx in database\n    for i in db(db.song.id>0).select(db.song.ALL):\n        tmp=i.id\n       \n        if((p==\'All\' or p==\'Album\')and (re.search(reg,i.album,re.IGNORECASE))):\n           if(i.id not in l):  l+=[i.id]\n        if((p==\'All\' or p==\'Titles\')and (re.search(reg,i.name,re.IGNORECASE))):\n           if(i.id not in l):  l+=[i.id]\n        if((p==\'All\' or p==\'Artist\')and (re.search(reg,i.artist,re.IGNORECASE))):\n           if(i.id not in l):l+=[i.id]   \n         \n    \n    return l\n \nimport os\n\n#controler for upload page\n@auth.requires(auth.user_email == 12)\ndef upload():\n    up_form=SQLFORM(db.files)\n    bol =\'dskh\' \n \n    if up_form.accepts(request.vars,session):\n            response.flash=(T(\'file uploaded\'))\n            path = os.path.join(request.folder,\'uploads\',up_form.vars[\'file\'])\n            bol=get_info(path,up_form.vars[\'id\'])   #get the metadata of uploaded file\n            if(bol[\'done\']==True):\n                 bol=bol[\'m\']\n                 #insert the metadata in database\n                 db.song.insert(file=up_form.vars[\'id\'],name=bol[\'title\'][0],doup=request.now,lyrics=bol[\'lyrics\'],length=bol[\'length\'],btr=bol[\'bit_rate\'], artist=bol[\'artist\'][0], album=bol[\'album\'][0], year=int(bol[\'date\']),genere=bol[\'genere\'][0],user_id=session.auth.user.id,pic=bol[\'img\'])\n                         \n            else:db(db.file.id==up_form.vars[\'id\']).delete()#if there is error in extracting metadata delete the file\n    elif up_form.errors:\n           response.flash=(T(\'error occured\'))\n    \n    down=db(db.song.id>0).select(orderby=~db.song.nod,limitby=(0,10)) #contains details of recently  uploadded files\n    recent=db(db.song.id>0).select(orderby=~db.song.doup,limitby=(0,4)) #contains details of recently uploaded files\n    byme=db(db.song.user_id==session.auth.user.id).select(orderby=~db.song.doup,limitby=(0,15)) #contains details of top songs uploaded by user\n    return dict(form=up_form,down=down,recent=recent,byme=byme)    \n\n\n#controller  for mymusic page\n@auth.requires_login()\ndef mymusic():\n        down=db(db.song.id>0).select(orderby=~db.song.nod,limitby=(0,10))#contains details of recently  uploadded files\n        recent=db(db.song.id>0).select(orderby=~db.song.doup,limitby=(0,4)) #contains details of recently uploaded files\n        \n        pageno=0\n        next=0\n        pre=0\n        no=15\n        n=15\n        if request.vars.has_key(\'pageno\'):\n            pageno=int(request.vars[\'pageno\'])\n            no=pageno*15+15                             #get the current page no\n        count=db(db.song.user_id==session.auth.user.id).count() #get the total no of entries\n         \n        if pageno > 0:\n            pre=1\n        if no < count:\n            next=1\n        else :\n            no-=15\n            n=count-no \n        byme=db(db.song.user_id==session.auth.user.id).select(orderby=~db.song.doup,limitby=(pageno*15,n))#contains details of top songs uploaded by user\n        return dict(pageno=pageno,pre=pre,next=next,down=down,recent=recent,byme=byme)\nimport os\n\n#controller forhandle playlist page\n@auth.requires_login()\ndef playlist():    \n        pageno=0\n        next=0\n        pre=0\n        no=11\n        n=11\n        if request.vars.has_key(\'pageno\'):\n            pageno=int(request.vars[\'pageno\'])      #get the current page no\n            if pageno < 0 : redirect(URL(r=request,f=\'user\',c=\'default\',args=\'logout\'))\n            no=pageno*11+11\n        \n        byme=db(db.playlist.user==session.auth.user.id).select()#contains details of top songs uploaded by user\n        \n        iid=0  \n        \n          \n        li=[]\n        for i in byme:\n            li+=[i.id]\n        if len(li)>0: iid=li[0]\n        \n                \n        if request.vars.has_key(\'id\'):\n            iid=int(request.vars[\'id\'])    \n            \n        if len(li)>0 and iid not in li: redirect(URL(r=request,f=\'user\',c=\'default\',args=\'logout\'))#if passed vars is not in range callfor logout\n        \n        count=db(db.playlist.user==session.auth.user.id).count()#get the total no of entries\n        \n        if pageno*11 > count: redirect(URL(r=request,f=\'user\',c=\'default\',args=\'logout\'))#if passed vars is not in range callfor logout\n        elif pageno*11==count and pageno >0:redirect(URL(r=request,f=\'playlist\',c=\'default\',vars=dict(pageno=pageno-1)))#redirect to previouspage\n      \n        song=db((db.list.list==iid)&(db.list.song==db.song.id)&(db.song.file==db.files.id)).select()  #order by orders\n        pname=""\n        for i in db(db.playlist.id==iid).select():\n             pname=i.name\n        #create the playlist .xfps file\n        str1=\'\xef\xbb\xbf<?xml version="1.0" encoding="UTF-8" ?> \\n<playlist version="0" xmlns="http://xspf.org/ns/0/">\\n <title>\'\n        str2=\'\'\' \n         </title>\n         <trackList>\'\'\'\n        str3=\'\'\'<track>\n          <location>\'\'\'\n\n        str4=\'\'\'</location>\n            <image>\'\'\'\n        str5=\'\'\'</image>\n        <annotation>\'\'\'\n        str6=\'\'\'</annotation>\n            </track>\'\'\'\n        str7=\'\'\'</trackList>\n            </playlist>\'\'\'\n        if len(li)>0 :\n            plist=file(os.path.join(request.folder,\'static\',(\'tmp\'+\'.xspf\')),\'w\')\n            plist.write(str1)\n            plist.write(pname)\n            plist.write(str2)\n        \n            for i in song:\n               plist.write(str3)\n               plist.write(str(URL(r=request,f=\'download\',c=\'default\',args=i.files.file)))\n               plist.write(str4)\n               plist.write(str(URL(request.application,\'static\',i.song.pic)))\n               plist.write(str5)\n               plist.write(i.song.name)\n               plist.write(str6)\n               #response.flash=song\n            plist.write(str7)        \n            plist.close()\n            #the playlist is created\n            \n        if pageno>0:\n            pre=1\n        if no <count:\n            next=1\n        else :\n            no-=11\n            n=count-no\n            \n        form = SQLFORM.factory(Field(\'new\',\'string\',label="NEW PLAYLIST"))#form to insert new playlist\n            \n        if form.accepts(request.vars,session):\n            response.flash=\'New Playlist created\'\n            db.playlist.insert(user=session.auth.user.id,name=form.vars[\'new\'])\n            redirect(URL(r=request,f=\'playlist\',vars=dict(pageno=pageno)))\n        elif form.errors:\n                response.flash=\'error\'\n        \n                    \n        byme=db(db.playlist.user==session.auth.user.id).select(limitby=(pageno*11,n))#contains details of top songs uploaded by user\n        scr1=" " \n        if len(li)>0:   \n            scr1=URL(request.application,\'static\',\'tmp\'+\'.xspf\')\n        scr2=URL(request.application,\'static\',os.path.join(\'ply\',\'xspf_player.swf\'))\n            \n        ply=XML(\'<object type="application/x-shockwave-flash" width="650" height="600" data="%(scr2)s?playlist_url=%(scr1)s">  <param name="movie"  value="%(scr2)s?autoplay=1&autoload=1&playlist_url=%(scr1)s"/> <embed  allowfullscreen="false" allowscriptaccess="always" src="%(scr2)s?playlist_url=%(scr1)s pluginspage=\xe2\x80\x9dhttp://www.macromedia.com/go/getflashplayer\xe2\x80\x9d" ></embed> </object>\'%dict(scr1=scr1,scr2=scr2))#the XML lines for player\n       \n        \n            \n        return dict(form=form,ply=ply,pageno=pageno,pre=pre,next=next,byme=byme,pname=pname)\n    \n#the controller for play song page\n@auth.requires_login()\ndef play():\n    \n        so=int(request.args(0))\n        som1=db(db.song.id==so).select()\n        if (db(db.song.id==so).count())<=0:\n            redirect(URL(r=request,f=\'user\',args=\'logout\'))#call for logout if vars not in range\n        \n        soid=0\n        for i in som1:\n          soid=i.file\n          sopic=i.pic\n          sonam=i.name\n        som=db(db.files.id==soid).select()\n        filn=""\n        for i in som:\n            filn=i.file\n        #create form for comment\n        form = SQLFORM.factory(Field(\'comment\',\'text\'))\n        \n        db.list.song.default=so\n        db.list.song.readable=False\n        db.list.favourite.readable=False\n        db.list.listen.readable=False\n        db.list.orders.readable=False\n        db.list.song.writable=False\n        db.list.favourite.writable=False\n        db.list.listen.writable=False\n        db.list.orders.writable=False\n        \n        myplaylist=[]\n        idform=[]\n        for i in db((db.playlist.user==session.auth.user.id)).select():\n              myplaylist+=[i.name]\n              idform+=[i.id]\n        \n   \n        db.list.list.requires=IS_IN_SET(idform,myplaylist)\n        form1=SQLFORM(db.list)\n        response.flash=sonam\n        if form1.accepts(request.vars,session):\n            response.flash="SONG ADDED TO PLAYLIST"\n        if form.accepts(request.vars,session):\n            response.flash=\'comment added\'\n            db.comments.insert(user_id=session.auth.user.id,song_id=so,comment=form.vars[\'comment\'],date=request.now)\n            \n             \n        sopic=URL(request.application,\'static\',sopic)#the album art pic\n        pic=XML(\'<img src=%(sopic)s align="center"  width="240px" height="240"\\>\'% dict(sopic=sopic)) \n        src=URL(r=request,c=\'default\',f=\'download\',args=filn)\n        width=\'400\'\n        height=45\n        """\n        ## Embeds a media file (such as flash video or an mp3 file)\n        - ``src`` is the src of the video\n        - ``width`` is the width of the image\n        - ``height`` is the height of the image\n        """\n        #the music player\n        ply=XML(\'<embed allowfullscreen="false" allowscriptaccess="always" flashvars="height=%(height)s&width=%(width)s&file=%(src)s" height="%(height)spx" src="%(url)s" width="%(width)spx"></embed>\'%dict(url=URL(request.application,\'static\',\'plugin_wiki/mediaplayer.swf\'),src=src,width=width,height=height))\n        \n        #select the comment for the song\n        comm=db((db.comments.song_id==so) &( db.comments.user_id==db.auth_user.id)).select(db.auth_user.first_name,db.auth_user.last_name,db.comments.comment,db.comments.date,db.auth_user.pic,db.auth_user.id,db.comments.id,orderby=~db.comments.date,limitby=(0,10))\n        down=db(db.song.id>0).select(orderby=~db.song.nod,limitby=(0,10))\n        recent=db(db.song.id>0).select(orderby=~db.song.doup,limitby=(0,4))\n        byme=db(db.song.user_id==session.auth.user.id).select(orderby=~db.song.doup,limitby=(0,15))\n        \n        return dict(ply=ply,down=down,recent=recent,byme=byme,comm=comm,form=form,pic=pic,som=som1,ffff=filn,form1=form1)   \n\n#contrller for the deleteplaylist function\n@auth.requires_login()        \ndef deletplaylist():\n    playl=int(request.vars[\'id\'])\n    pag=int(request.vars[\'pageno\'])\n    db(db.list.list==playl).delete()\n    db(db.playlist.id==playl).delete()\n    redirect(URL(r=request, f=\'playlist\',vars=dict(pageno=pag)))\n    return\n\n#contrller for the deletecomment function\n@auth.requires_login()\ndef deletcomment():\n    song=int(request.vars[\'song\'])\n    com=int(request.vars[\'com\'])\n    db(db.comments.id==com).delete()\n    redirect(URL(r=request, f=\'play\',args=song))\n    return\n        \n\n#controller for homepage\n\n#@auth.requires_membership(\'administration\')\n\n\n@auth.requires_login()\ndef home():\n    admin=0\n    if(auth.has_membership(\'adminstration\')):admin=1\n        \n    form = SQLFORM.factory(\n            Field(\'Search\'),\n            Field(\'type\',\'boolean\', requires=IS_IN_SET([\'All\',\'Artist\',\'Album\',\'Titles\']),widget=SQLFORM.widgets.radio.widget,default=\'All\'))\n    g=[]\n     \n    if session.string==None:\n          session.string=" "\n          session.type1="All"\n    string=session.string\n    type1=session.type1\n    pageno=0\n    next=0\n    pre=0\n    no=15\n        \n        \n    if request.vars.has_key(\'pageno\'):\n          pageno=int(request.vars[\'pageno\'])\n          no=pageno*15+15\n    if form.accepts(request.vars, session):\n          session.string=request.vars[\'Search\']\n          session.type1=request.vars[\'type\']\n          redirect(URL(r=request,f=\'home\'))\n    elif form.errors:\n          response.flash = \'form has errors\'\n       \n    g=process_search(string,type1)\n    count=len(g)\n       \n    found=""\n    down=db(db.song.id>0).select(orderby=~db.song.nod,limitby=(0,10))\n    recent=db(db.song.id>0).select(orderby=~db.song.doup,limitby=(0,4))\n    tmp=db(db.song.id>0).select()\n    if(g):\n          found=tmp.find(lambda x: x.id in g)\n    else: response.flash=\'no song found\'\n             \n    if pageno>0:\n          pre=1\n    if no <count:\n          next=1\n    session.string=string\n    session.type1=type1 \n    return dict(admin=admin,form=form,found=found,pageno=pageno,pre=pre,next=next,count=count,down=down,recent=recent)\nimport os\n@auth.requires_membership(\'adminstration\')\ndef ips():\n    ip12=db(db.ip_add.id>0).select()\n    return dict(ip=ip12)\n@auth.requires_membership(\'adminstration\')\ndef admins():\n    names=[]\n    ids=[]\n    for i in db(db.auth_user.id>0).select():\n              ids+=[i.id]\n              names+=[i.first_name+\' \'+i.last_name]\n    for i in db((db.auth_user.id==db.auth_membership.user_id)).select():\n           k=ids.index(i.auth_user.id)\n           del(ids[k])\n           del(names[k])\n      #  response.flash="Deleting Options"\n           form2 = SQLFORM.factory(\n            Field(\'user\',requires=IS_IN_SET(ids,names),label=\'Delete User\'))\n    son=db(db.song.id>0).select()\n    sonn=[]\n    sonid=[]\n    for i in son:\n        sonid+=[i.id]\n        sonn+=[i.name+\' artist: \'+i.artist]   \n    if request.vars.has_key(\'user\'):\n       #if form2.accepts(request.vars,session):\n       if not form2.errors:\n        db(db.comments.user_id==request.vars[\'user\']).delete()\n        for i in db(db.playlist.user==request.vars[\'user\']).select():\n            db(db.list.list==i.id).delete()\n        db(db.playlist.user==request.vars[\'user\']).delete()\n        db(db.auth_user.id==request.vars[\'user\']).delete()\n        redirect(URL(r=request,f=\'admins\'))\n       elif form2.errors: pass  \n    \n    form1 = SQLFORM.factory(\n            Field(\'song\',requires=IS_IN_SET(sonid,sonn),label=\'Delete Song\'))\n    \n    if form1.accepts(request.vars, session):\n           # response.flash="qefw"\n            \n        db(db.comments.song_id==request.vars[\'song\']).delete()\n        \n        art=db(db.song.id==request.vars[\'song\']).select()\n        artpic=""\n        for i in art:\n            artpic=os.path.join(request.folder,\'static\',i.pic)\n        try:\n            os.remove(artpic)\n        except OSError:\n             response.flash="error"\n        for i in db((db.song.id==request.vars[\'song\'])&(db.files.id==db.song.file)).select():\n            db(db.files.id==i.files.id).delete()\n        db(db.song.id==request.vars[\'song\']).delete()\n        redirect(URL(r=request,f=\'admins\'))\n        \n    down=db(db.song.id>0).select(orderby=~db.song.nod,limitby=(0,10))\n    recent=db(db.song.id>0).select(orderby=~db.song.doup,limitby=(0,4))\n    return dict(down=down,recent=recent,form=form2,form1=form1)\n\n\n\n\n\nfrom mutagen.mp3 import MP3\nfrom mutagen.easyid3 import EasyID3\nimport mutagen.id3\nfrom mutagen.id3 import ID3, TIT2, TALB, TPE1, TPE2, COMM, USLT, TCOM, TCON\n\nfrom mutagen.id3 import ID3NoHeaderError\nfrom mutagen.mp3 import HeaderNotFoundError\n\n#function to extract metadata from MP3 file\n@auth.requires_login()\ndef get_info(f,filen): \n    filen=str(filen)\n   \n    m={}\n    try:\n        audio = MP3(f)\n    except HeaderNotFoundError:\n        response.flash="Error Reading file"\n        ##remove the entry\n        return dict(m=m,done=False) \n    try:\n       tagg = ID3(f)\n    except ID3NoHeaderError:\n        response.flash="Error Reading file"\n        ##remove the entry\n        return dict(m=m,done=False)\n   \n    ext=\'.img\'\n    flag=1\n    imgfilename=""\n    #lookfor albumart\n    for frame in tagg.getall("APIC"):\n                flag=2\n                if (frame.mime == "image/jpeg") or (frame.mime == "image/jpg"): ext = ".jpg"\n                if frame.mime == "image/png": ext = ".png"\n                if frame.mime == "image/gif": ext = ".gif"\n\n                filen=filen+ext\n                #storethe album art\n                imgfilename=os.path.join(request.folder,\'static\',filen)\n             \n                myfile = file(imgfilename, \'w\')\n                myfile.write(frame.data)\n                myfile.close()\n    if(flag==1):\n                filen=filen+\'.jpg\'\n                imgfilename=str(URL(request.folder,\'static\',\'albumart.jpg\'))\n                ff=file(imgfilename,\'r\')\n                imgfilename=os.path.join(request.folder,\'static\',filen)\n                myfile = file(imgfilename, \'w\')\n                myfile.write(ff.read())\n                myfile.close()\n                ff.close()\n    m={}            \n    m = dict(MP3(f, ID3=EasyID3))\n    l=tagg.getall(u"USLT")\n    m[\'lyrics\']=""\n    if(not(m.has_key(\'artist\'))):m[\'artist\']=[\'unknown\']\n    if(not(m.has_key(\'album\'))):m[\'album\']=[\'unknown\']\n    if(not(m.has_key(\'title\'))):m[\'title\']=[\'unknown\']\n    if(not(m.has_key(\'genere\'))):m[\'genere\']=[\'unknown\']  \n    if(not(m.has_key(\'date\'))):m[u\'date\']=[\'2014\']\n    m[\'date\']=m[\'date\'][0][:4]\n    for i in tagg.getall(u"USLT"):\n         m[\'lyrics\']=i.text\n         \n    m[\'length\']=audio.info.length\n    m[\'bit_rate\']=audio.info.bitrate/(1000)\n    m[\'img\']=filen\n    \n    return dict(m=m,done=True)\n\nresponse._vars=response._caller(user)\n'
p6
sS'snapshot'
p7
(dp8
S'exception'
p9
(dp10
S'__hash__'
p11
S"<method-wrapper '__hash__' of exceptions.AttributeError object>"
p12
sS'__setattr__'
p13
S"<method-wrapper '__setattr__' of exceptions.AttributeError object>"
p14
sS'__reduce_ex__'
p15
S'<built-in method __reduce_ex__ of exceptions.AttributeError object>'
p16
sS'__getslice__'
p17
S"<method-wrapper '__getslice__' of exceptions.AttributeError object>"
p18
sS'__getitem__'
p19
S"<method-wrapper '__getitem__' of exceptions.AttributeError object>"
p20
sS'__setstate__'
p21
S'<built-in method __setstate__ of exceptions.AttributeError object>'
p22
sS'__reduce__'
p23
S'<built-in method __reduce__ of exceptions.AttributeError object>'
p24
sS'__str__'
p25
S"<method-wrapper '__str__' of exceptions.AttributeError object>"
p26
sS'__format__'
p27
S'<built-in method __format__ of exceptions.AttributeError object>'
p28
sS'__getattribute__'
p29
S"<method-wrapper '__getattribute__' of exceptions.AttributeError object>"
p30
sS'__class__'
p31
S"<type 'exceptions.AttributeError'>"
p32
sS'__unicode__'
p33
S'<built-in method __unicode__ of exceptions.AttributeError object>'
p34
sS'__delattr__'
p35
S"<method-wrapper '__delattr__' of exceptions.AttributeError object>"
p36
sS'__subclasshook__'
p37
S'<built-in method __subclasshook__ of type object>'
p38
sS'__repr__'
p39
S"<method-wrapper '__repr__' of exceptions.AttributeError object>"
p40
sS'args'
p41
S'("\'Auth\' object has no attribute \'user_email\'",)'
p42
sS'__dict__'
p43
S'{}'
p44
sS'__sizeof__'
p45
S'<built-in method __sizeof__ of exceptions.AttributeError object>'
p46
sS'__doc__'
p47
S"'Attribute not found.'"
p48
sS'__init__'
p49
S"<method-wrapper '__init__' of exceptions.AttributeError object>"
p50
sS'__new__'
p51
S'<built-in method __new__ of type object>'
p52
ssS'evalue'
p53
S"'Auth' object has no attribute 'user_email'"
p54
sS'request'
p55
(dp56
S'function'
p57
S"'user'"
p58
sS'body'
p59
S'<cStringIO.StringO object>'
p60
sS'wsgi'
p61
S"<Storage {'start_response': <function <lambda> a...ATH_INFO': '/Music_Library/default/user/login'}}>"
p62
sS'extension'
p63
S"'html'"
p64
sS'vars'
p65
S'<Storage {}>'
p66
sS'cid'
p67
S'None'
p68
sS'url'
p69
S'<gluon.html.XML object>'
p70
sS'raw_extension'
p71
S'None'
p72
sg41
S"['login']"
p73
sS'controller'
p74
S"'default'"
p75
sS'cookies'
p76
S"<SimpleCookie: session_id_AOE='127.0.0.1-abb8245...'127.0.0.1-6e7e6187-9c4d-4786-8889-a54ef8a0a5e1'>"
p77
sS'application'
p78
S"'Music_Library'"
p79
sS'ajax'
p80
S'False'
p81
sS'client'
p82
S"'127.0.0.1'"
p83
sS'env'
p84
S"<Storage {'wsgi_multithread': True, 'http_accept...path_info': '/Music_Library/default/user/login'}>"
p85
sS'raw_args'
p86
S"'login'"
p87
sS'get_vars'
p88
S'<Storage {}>'
p89
sS'folder'
p90
S"'/home/aakarshit/Desktop/python/web2py/applications/Music_Library/'"
p91
sS'now'
p92
S'datetime.datetime(2011, 2, 7, 15, 14, 42, 851465)'
p93
sS'post_vars'
p94
S'<Storage {}>'
p95
ssS'frames'
p96
(lp97
(dp98
S'file'
p99
S'/home/aakarshit/Desktop/python/web2py/gluon/restricted.py'
p100
sS'dump'
p101
(dp102
S'environment'
p103
S"{'A': <class 'gluon.html.A'>, 'Auth': <class 'gluon.tools.Auth'>, 'B': <class 'gluon.html.B'>, 'BEAUTIFY': <class 'gluon.html.BEAUTIFY'>, 'BODY': <class 'gluon.html.BODY'>, 'BR': <class 'gluon.html.BR'>, 'CENTER': <class 'gluon.html.CENTER'>, 'CLEANUP': <class 'gluon.validators.CLEANUP'>, 'CODE': <class 'gluon.html.CODE'>, 'CRYPT': <class 'gluon.validators.CRYPT'>, ...}"
p104
sS'ccode'
p105
S'<code object <module> at 0x8ef10f8, file "/home/...s/Music_Library/controllers/default.py", line 12>'
p106
ssS'lnum'
p107
I188
sS'lines'
p108
(dp109
I192
S'        # XXX Show exception in Wing IDE if running in debugger'
p110
sI183
S'        if type(code) == types.CodeType:'
p111
sI184
S'            ccode = code'
p112
sI185
S'        else:'
p113
sI186
S'            ccode = compile2(code,layer)'
p114
sI187
S''
sI188
S'        exec ccode in environment'
p115
sI189
S'    except HTTP:'
p116
sI190
S'        raise'
p117
sI191
S'    except Exception:'
p118
ssS'call'
p119
S"(code='# -*- coding: utf-8 -*- \\n\\n######################...one=True)\\n\\nresponse._vars=response._caller(user)\\n', environment={'A': <class 'gluon.html.A'>, 'Auth': <class 'gluon.tools.Auth'>, 'B': <class 'gluon.html.B'>, 'BEAUTIFY': <class 'gluon.html.BEAUTIFY'>, 'BODY': <class 'gluon.html.BODY'>, 'BR': <class 'gluon.html.BR'>, 'CENTER': <class 'gluon.html.CENTER'>, 'CLEANUP': <class 'gluon.validators.CLEANUP'>, 'CODE': <class 'gluon.html.CODE'>, 'CRYPT': <class 'gluon.validators.CRYPT'>, ...}, layer='/home/aakarshit/Desktop/python/web2py/applications/Music_Library/controllers/default.py')"
p120
sS'func'
p121
S'restricted'
p122
sa(dp123
g99
S'/home/aakarshit/Desktop/python/web2py/applications/Music_Library/controllers/default.py'
p124
sg101
(dp125
S'auth.requires'
p126
S'<bound method Auth.requires of <gluon.tools.Auth object>>'
p127
sS'auth.user_email'
p128
S'undefined'
p129
sS'auth'
p130
S'<gluon.tools.Auth object>'
p131
ssg107
I134
sg108
(dp132
I129
S'    return l'
p133
sI130
S''
sI131
S'import os'
p134
sI132
S''
sI133
S'#controler for upload page'
p135
sI134
S'@auth.requires(auth.user_email == 12)'
p136
sI135
S'def upload():'
p137
sI136
S'    up_form=SQLFORM(db.files)'
p138
sI137
S"    bol ='dskh'"
p139
sI138
S''
ssg119
S'()'
p140
sg121
S'<module>'
p141
sasS'pyver'
p142
S'Python 2.6.5: /usr/bin/python'
p143
sS'session'
p144
(dp145
S'auth'
p146
S'None'
p147
sS'_formkey[auth_user_create]'
p148
S"'918f9110-66f9-4436-9172-a50ddfc5c5ba'"
p149
sS'_formkey[login]'
p150
S"'98a59fc0-d405-45e2-9e69-4ed35d9416d7'"
p151
ssS'etype'
p152
S"<type 'exceptions.AttributeError'>"
p153
sS'date'
p154
S'Mon Feb  7 15:14:42 2011'
p155
sS'response'
p156
(dp157
S'status'
p158
S'200'
p159
sg59
S'<cStringIO.StringO object>'
p160
sg76
S"<SimpleCookie: session_id_Music_Library='127.0.0.1-4a95a450-b25c-436d-ba9b-788df6651212'>"
p161
sS'_vars'
p162
S'None'
p163
sS'title'
p164
S"'Music_Library'"
p165
sS'session_file'
p166
S"<open file '/home/aakarshit/Desktop/python/web2p...a95a450-b25c-436d-ba9b-788df6651212', mode 'rb+'>"
p167
sS'flash'
p168
S"''"
p169
sS'_custom_rollback'
p170
S'None'
p171
sS'session_id'
p172
S"'127.0.0.1-4a95a450-b25c-436d-ba9b-788df6651212'"
p173
sS'headers'
p174
S"<Storage {'Expires': 'Mon, 07 Feb 2011 09:44:42 ...he, must-revalidate, post-check=0, pre-check=0'}>"
p175
sS'meta'
p176
S"<Storage {'keywords': 'bla bla bla', 'description': 'describe your app', 'author': 'you'}>"
p177
sS'session_filename'
p178
S"'/home/aakarshit/Desktop/python/web2py/applicatio...ns/127.0.0.1-4a95a450-b25c-436d-ba9b-788df6651212'"
p179
sS'postprocessing'
p180
S'[]'
p181
sS'menu'
p182
S"[(<lazyT 'Index'>, False, <gluon.html.XML object>, []), (<lazyT 'Edit'>, False, <gluon.html.XML object>, [(<lazyT 'Controller'>, False, <gluon.html.XML object>), (<lazyT 'View'>, False, <gluon.html.XML object>), (<lazyT 'Layout'>, False, <gluon.html.XML object>), (<lazyT 'Stylesheet'>, False, <gluon.html.XML object>), (<lazyT 'DB Model'>, False, <gluon.html.XML object>), (<lazyT 'Menu Model'>, False, <gluon.html.XML object>), (<lazyT 'Database'>, False, <gluon.html.XML object>)])]"
p183
sS'_view_environment'
p184
S"{'A': <class 'gluon.html.A'>, 'Auth': <class 'gluon.tools.Auth'>, 'B': <class 'gluon.html.B'>, 'BEAUTIFY': <class 'gluon.html.BEAUTIFY'>, 'BODY': <class 'gluon.html.BODY'>, 'BR': <class 'gluon.html.BR'>, 'CENTER': <class 'gluon.html.CENTER'>, 'CLEANUP': <class 'gluon.validators.CLEANUP'>, 'CODE': <class 'gluon.html.CODE'>, 'CRYPT': <class 'gluon.validators.CRYPT'>, ...}"
p185
sS'subtitle'
p186
S"<lazyT 'customize me!'>"
p187
sS'session_id_name'
p188
S"'session_id_Music_Library'"
p189
sS'_custom_commit'
p190
S'None'
p191
sS'_caller'
p192
S'<function <lambda>>'
p193
sS'files'
p194
S'[<gluon.html.XML object>, <gluon.html.XML object>, <gluon.html.XML object>, <gluon.html.XML object>, <gluon.html.XML object>, <gluon.html.XML object>, <gluon.html.XML object>, <gluon.html.XML object>, <gluon.html.XML object>, <gluon.html.XML object>]'
p195
sS'view'
p196
S"'default/user.html'"
p197
ssS'locals'
p198
(dp199
S'Service'
p200
S"<class 'gluon.tools.Service'>"
p201
sS'OBJECT'
p202
S"<class 'gluon.html.OBJECT'>"
p203
sS'SQLDB'
p204
S"<class 'gluon.dal.DAL'>"
p205
sg144
S"<Storage {'_formkey[login]': '98a59fc0-d405-45e2...9110-66f9-4436-9172-a50ddfc5c5ba', 'auth': None}>"
p206
sS'LINK'
p207
S"<class 'gluon.html.LINK'>"
p208
sS'BR'
p209
S"<class 'gluon.html.BR'>"
p210
sS'local_import'
p211
S'<function <lambda>>'
p212
sS'OPTGROUP'
p213
S"<class 'gluon.html.OPTGROUP'>"
p214
sS'PRE'
p215
S"<class 'gluon.html.PRE'>"
p216
sS'IS_INT_IN_RANGE'
p217
S"<class 'gluon.validators.IS_INT_IN_RANGE'>"
p218
sS'IS_LOWER'
p219
S"<class 'gluon.validators.IS_LOWER'>"
p220
sS'IS_STRONG'
p221
S"<class 'gluon.validators.IS_STRONG'>"
p222
sS'Recaptcha'
p223
S"<class 'gluon.tools.Recaptcha'>"
p224
sS'cache'
p225
S'<gluon.cache.Cache object>'
p226
sS'IS_IN_DB'
p227
S"<class 'gluon.validators.IS_IN_DB'>"
p228
sS'TAG'
p229
S'<gluon.html.__TAG__ object>'
p230
sS'SQLField'
p231
S"<class 'gluon.dal.Field'>"
p232
sS'mail'
p233
S'<gluon.tools.Mail object>'
p234
sS'BODY'
p235
S"<class 'gluon.html.BODY'>"
p236
sS'IS_DATE_IN_RANGE'
p237
S"<class 'gluon.validators.IS_DATE_IN_RANGE'>"
p238
sS'IFRAME'
p239
S"<class 'gluon.html.IFRAME'>"
p240
sS'URL'
p241
S'<function _URL>'
p242
sS'db'
p243
S"<DAL {'auth_event': <Table {'origin': <gluon.dal..., 'id': <gluon.dal.Field object at 0x8fa206c>}>}>"
p244
sS'auth'
p245
S'<gluon.tools.Auth object>'
p246
sS'dat'
p247
S'2011'
p248
sS'P'
S"<class 'gluon.html.P'>"
p249
sS'TFOOT'
p250
S"<class 'gluon.html.TFOOT'>"
p251
sS'plugin_wiki_theme'
p252
S"'ui-darkness'"
p253
sS'XHTML'
p254
S"<class 'gluon.html.XHTML'>"
p255
sS'datetime'
p256
S"<module 'datetime' from '/usr/lib/python2.6/lib-dynload/datetime.so'>"
p257
sS'ON'
p258
S'True'
p259
sS'OL'
p260
S"<class 'gluon.html.OL'>"
p261
sS'TEXTAREA'
p262
S"<class 'gluon.html.TEXTAREA'>"
p263
sS'MENU'
p264
S"<class 'gluon.html.MENU'>"
p265
sS't'
S"<Table {'first_name': <gluon.dal.Field object at...b669d15150d7109e5f7ab36744a5b7_auth_user.table'}>"
p266
sS'EM'
p267
S"<class 'gluon.html.EM'>"
p268
sS'CODE'
p269
S"<class 'gluon.html.CODE'>"
p270
sS'HTTP'
p271
S"<class 'gluon.http.HTTP'>"
p272
sS'HR'
p273
S"<class 'gluon.html.HR'>"
p274
sS'IS_DATETIME'
p275
S"<class 'gluon.validators.IS_DATETIME'>"
p276
sS'STYLE'
p277
S"<class 'gluon.html.STYLE'>"
p278
sS'LABEL'
p279
S"<class 'gluon.html.LABEL'>"
p280
sS'META'
p281
S"<class 'gluon.html.META'>"
p282
sS'PluginWikiWidgets'
p283
S'<class __builtin__.PluginWikiWidgets>'
p284
sS'plugins'
p285
S'<gluon.tools.PluginManager object>'
p286
sS'download'
p287
S'<function download>'
p288
sS'SELECT'
p289
S"<class 'gluon.html.SELECT'>"
p290
sS'index'
p291
S'<function index>'
p292
sS'CENTER'
p293
S"<class 'gluon.html.CENTER'>"
p294
sS'prettydate'
p295
S'<function prettydate>'
p296
sS'Crud'
p297
S"<class 'gluon.tools.Crud'>"
p298
sS'Auth'
p299
S"<class 'gluon.tools.Auth'>"
p300
sS'__builtins__'
p301
S"{'ArithmeticError': <type 'exceptions.ArithmeticError'>, 'AssertionError': <type 'exceptions.AssertionError'>, 'AttributeError': <type 'exceptions.AttributeError'>, 'BaseException': <type 'exceptions.BaseException'>, 'BufferError': <type 'exceptions.BufferError'>, 'BytesWarning': <type 'exceptions.BytesWarning'>, 'DeprecationWarning': <type 'exceptions.DeprecationWarning'>, 'EOFError': <type 'exceptions.EOFError'>, 'Ellipsis': Ellipsis, 'EnvironmentError': <type 'exceptions.EnvironmentError'>, ...}"
p302
sS'IS_LIST_OF'
p303
S"<class 'gluon.validators.IS_LIST_OF'>"
p304
sS'SQLFORM'
p305
S"<class 'gluon.sqlhtml.SQLFORM'>"
p306
sS'LOAD'
p307
S'<gluon.compileapp.LoadFactory object>'
p308
sS'redirect'
p309
S'<function redirect>'
p310
sS'FIELDSET'
p311
S"<class 'gluon.html.FIELDSET'>"
p312
sS'IS_EQUAL_TO'
p313
S"<class 'gluon.validators.IS_EQUAL_TO'>"
p314
sS'embed64'
p315
S'<function embed64>'
p316
sS'logout'
p317
S'<function logout>'
p318
sS'INPUT'
p319
S"<class 'gluon.html.INPUT'>"
p320
sS'EMBED'
p321
S"<class 'gluon.html.EMBED'>"
p322
sS'_'
S'<function _>'
p323
sS'PluginWiki'
p324
S'<class __builtin__.PluginWiki>'
p325
sS'FORM'
p326
S"<class 'gluon.html.FORM'>"
p327
sS'H2'
p328
S"<class 'gluon.html.H2'>"
p329
sS'H3'
p330
S"<class 'gluon.html.H3'>"
p331
sS'H1'
p332
S"<class 'gluon.html.H1'>"
p333
sS'H6'
p334
S"<class 'gluon.html.H6'>"
p335
sS'H4'
p336
S"<class 'gluon.html.H4'>"
p337
sS'H5'
p338
S"<class 'gluon.html.H5'>"
p339
sS'UL'
p340
S"<class 'gluon.html.UL'>"
p341
sS'IS_UPPER'
p342
S"<class 'gluon.validators.IS_UPPER'>"
p343
sS'xmlescape'
p344
S'<function xmlescape>'
p345
sS'IS_TIME'
p346
S"<class 'gluon.validators.IS_TIME'>"
p347
sS'os'
p348
S"<module 'os' from '/usr/lib/python2.6/os.pyc'>"
p349
sS'OPTION'
p350
S"<class 'gluon.html.OPTION'>"
p351
sS'TITLE'
p352
S"<class 'gluon.html.TITLE'>"
p353
sS'DEFAULT'
p354
S"{'editor': False, 'level': 3, 'migrate': True, 'mode': 'markmin', 'theme': 'ui-darkness'}"
p355
sS'CRYPT'
p356
S"<class 'gluon.validators.CRYPT'>"
p357
sS'process_search'
p358
S'<function process_search>'
p359
sS'IS_EMPTY_OR'
p360
S"<class 'gluon.validators.IS_EMPTY_OR'>"
p361
sS'MARKMIN'
p362
S"<class 'gluon.html.MARKMIN'>"
p363
sS'service'
p364
S'<gluon.tools.Service object>'
p365
sS'SCRIPT'
p366
S"<class 'gluon.html.SCRIPT'>"
p367
sS'geocode'
p368
S'<function geocode>'
p369
sg119
S'<function call>'
p370
sS'TABLE'
p371
S"<class 'gluon.html.TABLE'>"
p372
sS'IS_IPV4'
p373
S"<class 'gluon.validators.IS_IPV4'>"
p374
sS'IS_LENGTH'
p375
S"<class 'gluon.validators.IS_LENGTH'>"
p376
sS'XML'
p377
S"<class 'gluon.html.XML'>"
p378
sS'B'
S"<class 'gluon.html.B'>"
p379
sS'IMG'
p380
S"<class 'gluon.html.IMG'>"
p381
sS'SQLTABLE'
p382
S"<class 'gluon.sqlhtml.SQLTABLE'>"
p383
sS'IS_MATCH'
p384
S"<class 'gluon.validators.IS_MATCH'>"
p385
sS'IS_ALPHANUMERIC'
p386
S"<class 'gluon.validators.IS_ALPHANUMERIC'>"
p387
sS'_f'
p388
S"'plugin_wiki/multiselect/jquery.multiselect.js'"
p389
sS'SPAN'
p390
S"<class 'gluon.html.SPAN'>"
p391
sS'plugin_rating'
p392
S'<function plugin_rating>'
p393
sS'plugin_wiki_editor'
p394
g81
sS'IS_SLUG'
p395
S"<class 'gluon.validators.IS_SLUG'>"
p396
sS'CLEANUP'
p397
S"<class 'gluon.validators.CLEANUP'>"
p398
sS'today'
p399
S'datetime.date(2011, 2, 7)'
p400
sS'plugin_wiki_migrate'
p401
g259
sS'fetch'
p402
S'<function fetch>'
p403
sS'IS_DATE'
p404
S"<class 'gluon.validators.IS_DATE'>"
p405
sS'IS_EMAIL'
p406
S"<class 'gluon.validators.IS_EMAIL'>"
p407
sS'IS_NOT_EMPTY'
p408
S"<class 'gluon.validators.IS_NOT_EMPTY'>"
p409
sS'm'
g259
sS'BEAUTIFY'
p410
S"<class 'gluon.html.BEAUTIFY'>"
p411
sS'TBODY'
p412
S"<class 'gluon.html.TBODY'>"
p413
sS'Field'
p414
S"<class 'gluon.dal.Field'>"
p415
sS'plugin_wiki'
p416
S'<__builtin__.PluginWiki instance>'
p417
sS'plugin_wiki_level'
p418
S'3'
sS'Mail'
p419
S"<class 'gluon.tools.Mail'>"
p420
sS'DIV'
p421
S"<class 'gluon.html.DIV'>"
p422
sS'LEGEND'
p423
S"<class 'gluon.html.LEGEND'>"
p424
sS'DAL'
p425
S"<class 'gluon.dal.DAL'>"
p426
sS'TT'
p427
S"<class 'gluon.html.TT'>"
p428
sS'TR'
p429
S"<class 'gluon.html.TR'>"
p430
sS'LI'
p431
S"<class 'gluon.html.LI'>"
p432
sS'TH'
p433
S"<class 'gluon.html.TH'>"
p434
sS'TD'
p435
S"<class 'gluon.html.TD'>"
p436
sS'PluginManager'
p437
S"<class 'gluon.tools.PluginManager'>"
p438
sS'IS_URL'
p439
S"<class 'gluon.validators.IS_URL'>"
p440
sS'A'
S"<class 'gluon.html.A'>"
p441
sS'HEAD'
p442
S"<class 'gluon.html.HEAD'>"
p443
sS'IS_DATETIME_IN_RANGE'
p444
S"<class 'gluon.validators.IS_DATETIME_IN_RANGE'>"
p445
sS'HTML'
p446
S"<class 'gluon.html.HTML'>"
p447
sS'IS_IMAGE'
p448
S"<class 'gluon.validators.IS_IMAGE'>"
p449
sS'I'
S"<class 'gluon.html.I'>"
p450
sS'crud'
p451
S'<gluon.tools.Crud object>'
p452
sS'IS_NOT_IN_DB'
p453
S"<class 'gluon.validators.IS_NOT_IN_DB'>"
p454
sS'user'
p455
S'<function user>'
p456
sg156
S"<Storage {'status': 200, 'body': <cStringIO.Stri...object at 0x8bc8d8c>], '_custom_rollback': None}>"
p457
sS'THEAD'
p458
S"<class 'gluon.html.THEAD'>"
p459
sS'IS_NULL_OR'
p460
S"<class 'gluon.validators.IS_EMPTY_OR'>"
p461
sS'plugin_wiki_mode'
p462
S"'markmin'"
p463
sS'IS_FLOAT_IN_RANGE'
p464
S"<class 'gluon.validators.IS_FLOAT_IN_RANGE'>"
p465
sS'register'
p466
S'<function register>'
p467
sg55
S"<Storage {'function': 'user', 'body': <cStringIO... 15, 14, 42, 851465), 'post_vars': <Storage {}>}>"
p468
sS'IS_EXPR'
p469
S"<class 'gluon.validators.IS_EXPR'>"
p470
sS'IS_IN_SET'
p471
S"<class 'gluon.validators.IS_IN_SET'>"
p472
sS'IS_UPLOAD_FILENAME'
p473
S"<class 'gluon.validators.IS_UPLOAD_FILENAME'>"
p474
sS'IS_DECIMAL_IN_RANGE'
p475
S"<class 'gluon.validators.IS_DECIMAL_IN_RANGE'>"
p476
sS're'
p477
S"<module 're' from '/usr/lib/python2.6/re.pyc'>"
p478
sS'T'
S'<gluon.languages.translator object>'
p479
sssS'traceback'
p480
S'Traceback (most recent call last):\n  File "/home/aakarshit/Desktop/python/web2py/gluon/restricted.py", line 188, in restricted\n    exec ccode in environment\n  File "/home/aakarshit/Desktop/python/web2py/applications/Music_Library/controllers/default.py", line 134, in <module>\n    @auth.requires(auth.user_email == 12)\nAttributeError: \'Auth\' object has no attribute \'user_email\'\n'
p481
s.